	.file	"01_hello_SDL.cpp"
	.text
.Ltext0:
	.globl	gWindow
	.bss
	.align 4
	.type	gWindow, @object
	.size	gWindow, 4
gWindow:
	.zero	4
	.globl	surface
	.align 4
	.type	surface, @object
	.size	surface, 4
surface:
	.zero	4
	.globl	event
	.align 32
	.type	event, @object
	.size	event, 56
event:
	.zero	56
	.globl	SCREEN_WIDTH
	.data
	.align 4
	.type	SCREEN_WIDTH, @object
	.size	SCREEN_WIDTH, 4
SCREEN_WIDTH:
	.long	480
	.globl	SCREEN_HEIGHT
	.align 4
	.type	SCREEN_HEIGHT, @object
	.size	SCREEN_HEIGHT, 4
SCREEN_HEIGHT:
	.long	520
	.globl	i
	.bss
	.align 4
	.type	i, @object
	.size	i, 4
i:
	.zero	4
	.section	.rodata
	.align 4
.LC0:
	.string	"SDL could not initialize! SDL_Error: %s\n"
	.text
	.globl	_Z4initv
	.type	_Z4initv, @function
_Z4initv:
.LFB11:
	.file 1 "01_hello_SDL.cpp"
	.loc 1 16 0
	.cfi_startproc
	pushl	%ebp
	.cfi_def_cfa_offset 8
	.cfi_offset 5, -8
	movl	%esp, %ebp
	.cfi_def_cfa_register 5
	subl	$24, %esp
	.loc 1 18 0
	movb	$1, -9(%ebp)
	.loc 1 22 0
	subl	$12, %esp
	pushl	$32
	call	SDL_Init
	addl	$16, %esp
	shrl	$31, %eax
	testb	%al, %al
	je	.L2
	.loc 1 23 0
	call	SDL_GetError
	subl	$8, %esp
	pushl	%eax
	pushl	$.LC0
	call	printf
	addl	$16, %esp
.L2:
	.loc 1 26 0
	movzbl	-9(%ebp), %eax
	.loc 1 27 0
	leave
	.cfi_restore 5
	.cfi_def_cfa 4, 4
	ret
	.cfi_endproc
.LFE11:
	.size	_Z4initv, .-_Z4initv
	.section	.rodata
.LC1:
	.string	"SDL Tutorial"
	.text
	.globl	_Z6createv
	.type	_Z6createv, @function
_Z6createv:
.LFB12:
	.loc 1 29 0
	.cfi_startproc
	pushl	%ebp
	.cfi_def_cfa_offset 8
	.cfi_offset 5, -8
	movl	%esp, %ebp
	.cfi_def_cfa_register 5
	subl	$24, %esp
	.loc 1 31 0
	movb	$1, -9(%ebp)
	.loc 1 32 0
	movl	SCREEN_HEIGHT, %edx
	movl	SCREEN_WIDTH, %eax
	subl	$8, %esp
	pushl	$4
	pushl	%edx
	pushl	%eax
	pushl	$536805376
	pushl	$536805376
	pushl	$.LC1
	call	SDL_CreateWindow
	addl	$32, %esp
	movl	%eax, gWindow
	.loc 1 33 0
	movzbl	-9(%ebp), %eax
	.loc 1 34 0
	leave
	.cfi_restore 5
	.cfi_def_cfa 4, 4
	ret
	.cfi_endproc
.LFE12:
	.size	_Z6createv, .-_Z6createv
	.section	.rodata
	.align 4
.LC2:
	.string	"Didn't create surface! SDL_Error: %s\n"
	.text
	.globl	_Z14surface_createv
	.type	_Z14surface_createv, @function
_Z14surface_createv:
.LFB13:
	.loc 1 38 0
	.cfi_startproc
	pushl	%ebp
	.cfi_def_cfa_offset 8
	.cfi_offset 5, -8
	movl	%esp, %ebp
	.cfi_def_cfa_register 5
	subl	$24, %esp
	.loc 1 39 0
	movb	$1, -9(%ebp)
	.loc 1 41 0
	movl	gWindow, %eax
	subl	$12, %esp
	pushl	%eax
	call	SDL_GetWindowSurface
	addl	$16, %esp
	movl	%eax, surface
	.loc 1 43 0
	movl	surface, %eax
	testl	%eax, %eax
	jne	.L7
	.loc 1 44 0
	call	SDL_GetError
	subl	$8, %esp
	pushl	%eax
	pushl	$.LC2
	call	printf
	addl	$16, %esp
.L7:
	.loc 1 46 0
	movzbl	-9(%ebp), %eax
	.loc 1 47 0
	leave
	.cfi_restore 5
	.cfi_def_cfa 4, 4
	ret
	.cfi_endproc
.LFE13:
	.size	_Z14surface_createv, .-_Z14surface_createv
	.section	.rodata
.LC3:
	.string	"SDL_FIRSTEVENT is %d\n"
.LC4:
	.string	"SDL_QUIT is %d\n"
.LC5:
	.string	"SDL_APP_TERMINATING is %d\n"
.LC6:
	.string	"SDL_APP_LOWMEMORY is %d\n"
	.align 4
.LC7:
	.string	"SDL_APP_WILLENTERBACKGROUND is %d\n"
	.align 4
.LC8:
	.string	"SDL_APP_DIDENTERBACKGROUND is %d\n"
	.align 4
.LC9:
	.string	"SDL_APP_WILLENTERFOREGROUND is %d\n"
	.align 4
.LC10:
	.string	"SDL_APP_DIDENTERFOREGROUND is %d\n"
.LC11:
	.string	"SDL_WINDOWEVENT is %d\n"
.LC12:
	.string	"SDL_SYSWMEVENT is %d\n"
.LC13:
	.string	"SDL_KEYDOWN is %d\n"
.LC14:
	.string	"SDL_KEYUP is %d\n"
.LC15:
	.string	"SDL_TEXTEDITING is %d\n"
.LC16:
	.string	"SDL_TEXTINPUT is %d\n"
.LC17:
	.string	"SDL_KEYMAPCHANGED is %d\n"
.LC18:
	.string	"SDL_MOUSEMOTION is %d\n"
.LC19:
	.string	"SDL_MOUSEBUTTONDOWN is %d\n"
.LC20:
	.string	"SDL_MOUSEBUTTONUP is %d\n"
.LC21:
	.string	"SDL_MOUSEWHEEL is %d\n"
.LC22:
	.string	"SDL_JOYAXISMOTION is %d\n"
.LC23:
	.string	"SDL_JOYBALLMOTION is %d\n"
.LC24:
	.string	"SDL_JOYHATMOTION is %d\n"
.LC25:
	.string	"SDL_JOYBUTTONDOWN is %d\n"
.LC26:
	.string	"SDL_JOYBUTTONUP is %d\n"
.LC27:
	.string	"SDL_JOYDEVICEADDED is %d\n"
.LC28:
	.string	"SDL_JOYDEVICEREMOVED is %d\n"
	.align 4
.LC29:
	.string	"SDL_CONTROLLERAXISMOTION is %d\n"
	.align 4
.LC30:
	.string	"SDL_CONTROLLERBUTTONDOWN is %d\n"
.LC31:
	.string	"SDL_CONTROLLERBUTTONUP is %d\n"
	.align 4
.LC32:
	.string	"SDL_CONTROLLERDEVICEADDED is %d\n"
	.align 4
.LC33:
	.string	"SDL_CONTROLLERDEVICEREMOVED is %d\n"
	.align 4
.LC34:
	.string	"SDL_CONTROLLERDEVICEREMAPPED is %d\n"
.LC35:
	.string	"SDL_FINGERDOWN is %d\n"
.LC36:
	.string	"SDL_FINGERUP is %d\n"
.LC37:
	.string	"SDL_FINGERMOTION is %d\n"
.LC38:
	.string	"SDL_DOLLARGESTURE is %d\n"
.LC39:
	.string	"SDL_DOLLARRECORD is %d\n"
.LC40:
	.string	"SDL_MULTIGESTURE is %d\n"
.LC41:
	.string	"SDL_CLIPBOARDUPDATE is %d\n"
.LC42:
	.string	"SDL_DROPFILE is %d\n"
.LC43:
	.string	"SDL_AUDIODEVICEADDED is %d\n"
.LC44:
	.string	"SDL_AUDIODEVICEREMOVED is %d\n"
	.align 4
.LC45:
	.string	"SDL_RENDER_TARGETS_RESET is %d\n"
	.align 4
.LC46:
	.string	"SDL_RENDER_DEVICE_RESET is %d\n"
.LC47:
	.string	"SDL_USEREVENT is %d\n"
.LC48:
	.string	"SDL_LASTEVENT is %d\n"
	.text
	.globl	_Z14PrintAllEventsv
	.type	_Z14PrintAllEventsv, @function
_Z14PrintAllEventsv:
.LFB14:
	.loc 1 51 0
	.cfi_startproc
	pushl	%ebp
	.cfi_def_cfa_offset 8
	.cfi_offset 5, -8
	movl	%esp, %ebp
	.cfi_def_cfa_register 5
	subl	$8, %esp
	.loc 1 52 0
	subl	$8, %esp
	pushl	$0
	pushl	$.LC3
	call	printf
	addl	$16, %esp
	.loc 1 53 0
	subl	$8, %esp
	pushl	$256
	pushl	$.LC4
	call	printf
	addl	$16, %esp
	.loc 1 54 0
	subl	$8, %esp
	pushl	$257
	pushl	$.LC5
	call	printf
	addl	$16, %esp
	.loc 1 55 0
	subl	$8, %esp
	pushl	$258
	pushl	$.LC6
	call	printf
	addl	$16, %esp
	.loc 1 56 0
	subl	$8, %esp
	pushl	$259
	pushl	$.LC7
	call	printf
	addl	$16, %esp
	.loc 1 57 0
	subl	$8, %esp
	pushl	$260
	pushl	$.LC8
	call	printf
	addl	$16, %esp
	.loc 1 58 0
	subl	$8, %esp
	pushl	$261
	pushl	$.LC9
	call	printf
	addl	$16, %esp
	.loc 1 59 0
	subl	$8, %esp
	pushl	$262
	pushl	$.LC10
	call	printf
	addl	$16, %esp
	.loc 1 60 0
	subl	$8, %esp
	pushl	$512
	pushl	$.LC11
	call	printf
	addl	$16, %esp
	.loc 1 61 0
	subl	$8, %esp
	pushl	$513
	pushl	$.LC12
	call	printf
	addl	$16, %esp
	.loc 1 62 0
	subl	$8, %esp
	pushl	$768
	pushl	$.LC13
	call	printf
	addl	$16, %esp
	.loc 1 63 0
	subl	$8, %esp
	pushl	$769
	pushl	$.LC14
	call	printf
	addl	$16, %esp
	.loc 1 64 0
	subl	$8, %esp
	pushl	$770
	pushl	$.LC15
	call	printf
	addl	$16, %esp
	.loc 1 65 0
	subl	$8, %esp
	pushl	$771
	pushl	$.LC16
	call	printf
	addl	$16, %esp
	.loc 1 66 0
	subl	$8, %esp
	pushl	$772
	pushl	$.LC17
	call	printf
	addl	$16, %esp
	.loc 1 67 0
	subl	$8, %esp
	pushl	$1024
	pushl	$.LC18
	call	printf
	addl	$16, %esp
	.loc 1 68 0
	subl	$8, %esp
	pushl	$1025
	pushl	$.LC19
	call	printf
	addl	$16, %esp
	.loc 1 69 0
	subl	$8, %esp
	pushl	$1026
	pushl	$.LC20
	call	printf
	addl	$16, %esp
	.loc 1 70 0
	subl	$8, %esp
	pushl	$1027
	pushl	$.LC21
	call	printf
	addl	$16, %esp
	.loc 1 71 0
	subl	$8, %esp
	pushl	$1536
	pushl	$.LC22
	call	printf
	addl	$16, %esp
	.loc 1 72 0
	subl	$8, %esp
	pushl	$1537
	pushl	$.LC23
	call	printf
	addl	$16, %esp
	.loc 1 73 0
	subl	$8, %esp
	pushl	$1538
	pushl	$.LC24
	call	printf
	addl	$16, %esp
	.loc 1 74 0
	subl	$8, %esp
	pushl	$1539
	pushl	$.LC25
	call	printf
	addl	$16, %esp
	.loc 1 75 0
	subl	$8, %esp
	pushl	$1540
	pushl	$.LC26
	call	printf
	addl	$16, %esp
	.loc 1 76 0
	subl	$8, %esp
	pushl	$1541
	pushl	$.LC27
	call	printf
	addl	$16, %esp
	.loc 1 77 0
	subl	$8, %esp
	pushl	$1542
	pushl	$.LC28
	call	printf
	addl	$16, %esp
	.loc 1 78 0
	subl	$8, %esp
	pushl	$1616
	pushl	$.LC29
	call	printf
	addl	$16, %esp
	.loc 1 79 0
	subl	$8, %esp
	pushl	$1617
	pushl	$.LC30
	call	printf
	addl	$16, %esp
	.loc 1 80 0
	subl	$8, %esp
	pushl	$1618
	pushl	$.LC31
	call	printf
	addl	$16, %esp
	.loc 1 81 0
	subl	$8, %esp
	pushl	$1619
	pushl	$.LC32
	call	printf
	addl	$16, %esp
	.loc 1 82 0
	subl	$8, %esp
	pushl	$1620
	pushl	$.LC33
	call	printf
	addl	$16, %esp
	.loc 1 83 0
	subl	$8, %esp
	pushl	$1621
	pushl	$.LC34
	call	printf
	addl	$16, %esp
	.loc 1 84 0
	subl	$8, %esp
	pushl	$1792
	pushl	$.LC35
	call	printf
	addl	$16, %esp
	.loc 1 85 0
	subl	$8, %esp
	pushl	$1793
	pushl	$.LC36
	call	printf
	addl	$16, %esp
	.loc 1 86 0
	subl	$8, %esp
	pushl	$1794
	pushl	$.LC37
	call	printf
	addl	$16, %esp
	.loc 1 87 0
	subl	$8, %esp
	pushl	$2048
	pushl	$.LC38
	call	printf
	addl	$16, %esp
	.loc 1 88 0
	subl	$8, %esp
	pushl	$2049
	pushl	$.LC39
	call	printf
	addl	$16, %esp
	.loc 1 89 0
	subl	$8, %esp
	pushl	$2050
	pushl	$.LC40
	call	printf
	addl	$16, %esp
	.loc 1 90 0
	subl	$8, %esp
	pushl	$2304
	pushl	$.LC41
	call	printf
	addl	$16, %esp
	.loc 1 91 0
	subl	$8, %esp
	pushl	$4096
	pushl	$.LC42
	call	printf
	addl	$16, %esp
	.loc 1 97 0
	subl	$8, %esp
	pushl	$4352
	pushl	$.LC43
	call	printf
	addl	$16, %esp
	.loc 1 98 0
	subl	$8, %esp
	pushl	$4353
	pushl	$.LC44
	call	printf
	addl	$16, %esp
	.loc 1 99 0
	subl	$8, %esp
	pushl	$8192
	pushl	$.LC45
	call	printf
	addl	$16, %esp
	.loc 1 100 0
	subl	$8, %esp
	pushl	$8193
	pushl	$.LC46
	call	printf
	addl	$16, %esp
	.loc 1 102 0
	subl	$8, %esp
	pushl	$32768
	pushl	$.LC47
	call	printf
	addl	$16, %esp
	.loc 1 103 0
	subl	$8, %esp
	pushl	$65535
	pushl	$.LC48
	call	printf
	addl	$16, %esp
	.loc 1 104 0
	nop
	leave
	.cfi_restore 5
	.cfi_def_cfa 4, 4
	ret
	.cfi_endproc
.LFE14:
	.size	_Z14PrintAllEventsv, .-_Z14PrintAllEventsv
	.section	.rodata
.LC49:
	.string	"Window %d shown"
.LC50:
	.string	"Window %d hidden"
.LC51:
	.string	"Window %d exposed"
.LC52:
	.string	"Window %d moved to %d,%d"
.LC53:
	.string	"Window %d resized to %dx%d"
	.align 4
.LC54:
	.string	"Window %d size changed to %dx%d"
.LC55:
	.string	"Window %d minimized"
.LC56:
	.string	"Window %d maximized"
.LC57:
	.string	"Window %d restored"
.LC58:
	.string	"Mouse entered window %d"
.LC59:
	.string	"Mouse left window %d"
	.align 4
.LC60:
	.string	"Window %d gained keyboard focus"
.LC61:
	.string	"Window %d lost keyboard focus"
.LC62:
	.string	"Window %d closed"
	.align 4
.LC63:
	.string	"Window %d got unknown event %d"
	.text
	.globl	_Z10PrintEventP9SDL_Event
	.type	_Z10PrintEventP9SDL_Event, @function
_Z10PrintEventP9SDL_Event:
.LFB15:
	.loc 1 108 0
	.cfi_startproc
	pushl	%ebp
	.cfi_def_cfa_offset 8
	.cfi_offset 5, -8
	movl	%esp, %ebp
	.cfi_def_cfa_register 5
	subl	$8, %esp
	.loc 1 109 0
	movl	8(%ebp), %eax
	movl	(%eax), %eax
	cmpl	$512, %eax
	jne	.L29
	.loc 1 110 0
	movl	8(%ebp), %eax
	movzbl	12(%eax), %eax
	movzbl	%al, %eax
	cmpl	$14, %eax
	ja	.L12
	movl	.L14(,%eax,4), %eax
	jmp	*%eax
	.section	.rodata
	.align 4
	.align 4
.L14:
	.long	.L12
	.long	.L13
	.long	.L15
	.long	.L16
	.long	.L17
	.long	.L18
	.long	.L19
	.long	.L20
	.long	.L21
	.long	.L22
	.long	.L23
	.long	.L24
	.long	.L25
	.long	.L26
	.long	.L27
	.text
.L13:
	.loc 1 112 0
	movl	8(%ebp), %eax
	movl	8(%eax), %eax
	subl	$8, %esp
	pushl	%eax
	pushl	$.LC49
	call	printf
	addl	$16, %esp
	.loc 1 113 0
	jmp	.L11
.L15:
	.loc 1 115 0
	movl	8(%ebp), %eax
	movl	8(%eax), %eax
	subl	$8, %esp
	pushl	%eax
	pushl	$.LC50
	call	printf
	addl	$16, %esp
	.loc 1 116 0
	jmp	.L11
.L16:
	.loc 1 118 0
	movl	8(%ebp), %eax
	movl	8(%eax), %eax
	subl	$8, %esp
	pushl	%eax
	pushl	$.LC51
	call	printf
	addl	$16, %esp
	.loc 1 119 0
	jmp	.L11
.L17:
	.loc 1 121 0
	movl	8(%ebp), %eax
	movl	20(%eax), %ecx
	movl	8(%ebp), %eax
	movl	16(%eax), %edx
	movl	8(%ebp), %eax
	movl	8(%eax), %eax
	.loc 1 123 0
	pushl	%ecx
	pushl	%edx
	pushl	%eax
	pushl	$.LC52
	call	printf
	addl	$16, %esp
	.loc 1 124 0
	jmp	.L11
.L18:
	.loc 1 126 0
	movl	8(%ebp), %eax
	movl	20(%eax), %ecx
	movl	8(%ebp), %eax
	movl	16(%eax), %edx
	movl	8(%ebp), %eax
	movl	8(%eax), %eax
	.loc 1 128 0
	pushl	%ecx
	pushl	%edx
	pushl	%eax
	pushl	$.LC53
	call	printf
	addl	$16, %esp
	.loc 1 129 0
	jmp	.L11
.L19:
	.loc 1 131 0
	movl	8(%ebp), %eax
	movl	20(%eax), %ecx
	movl	8(%ebp), %eax
	movl	16(%eax), %edx
	movl	8(%ebp), %eax
	movl	8(%eax), %eax
	.loc 1 133 0
	pushl	%ecx
	pushl	%edx
	pushl	%eax
	pushl	$.LC54
	call	printf
	addl	$16, %esp
	.loc 1 134 0
	jmp	.L11
.L20:
	.loc 1 136 0
	movl	8(%ebp), %eax
	movl	8(%eax), %eax
	subl	$8, %esp
	pushl	%eax
	pushl	$.LC55
	call	printf
	addl	$16, %esp
	.loc 1 137 0
	jmp	.L11
.L21:
	.loc 1 139 0
	movl	8(%ebp), %eax
	movl	8(%eax), %eax
	subl	$8, %esp
	pushl	%eax
	pushl	$.LC56
	call	printf
	addl	$16, %esp
	.loc 1 140 0
	jmp	.L11
.L22:
	.loc 1 142 0
	movl	8(%ebp), %eax
	movl	8(%eax), %eax
	subl	$8, %esp
	pushl	%eax
	pushl	$.LC57
	call	printf
	addl	$16, %esp
	.loc 1 143 0
	jmp	.L11
.L23:
	.loc 1 145 0
	movl	8(%ebp), %eax
	movl	8(%eax), %eax
	.loc 1 146 0
	subl	$8, %esp
	pushl	%eax
	pushl	$.LC58
	call	printf
	addl	$16, %esp
	.loc 1 147 0
	jmp	.L11
.L24:
	.loc 1 149 0
	movl	8(%ebp), %eax
	movl	8(%eax), %eax
	subl	$8, %esp
	pushl	%eax
	pushl	$.LC59
	call	printf
	addl	$16, %esp
	.loc 1 150 0
	jmp	.L11
.L25:
	.loc 1 152 0
	movl	8(%ebp), %eax
	movl	8(%eax), %eax
	.loc 1 153 0
	subl	$8, %esp
	pushl	%eax
	pushl	$.LC60
	call	printf
	addl	$16, %esp
	.loc 1 154 0
	jmp	.L11
.L26:
	.loc 1 156 0
	movl	8(%ebp), %eax
	movl	8(%eax), %eax
	.loc 1 157 0
	subl	$8, %esp
	pushl	%eax
	pushl	$.LC61
	call	printf
	addl	$16, %esp
	.loc 1 158 0
	jmp	.L11
.L27:
	.loc 1 160 0
	movl	8(%ebp), %eax
	movl	8(%eax), %eax
	subl	$8, %esp
	pushl	%eax
	pushl	$.LC62
	call	printf
	addl	$16, %esp
	.loc 1 161 0
	jmp	.L11
.L12:
	.loc 1 172 0
	movl	8(%ebp), %eax
	movzbl	12(%eax), %eax
	.loc 1 171 0
	movzbl	%al, %edx
	movl	8(%ebp), %eax
	movl	8(%eax), %eax
	.loc 1 172 0
	subl	$4, %esp
	pushl	%edx
	pushl	%eax
	pushl	$.LC63
	call	printf
	addl	$16, %esp
	.loc 1 173 0
	nop
.L11:
.L29:
	.loc 1 176 0
	nop
	leave
	.cfi_restore 5
	.cfi_def_cfa 4, 4
	ret
	.cfi_endproc
.LFE15:
	.size	_Z10PrintEventP9SDL_Event, .-_Z10PrintEventP9SDL_Event
	.globl	_Z8getpixelP11SDL_Surfaceii
	.type	_Z8getpixelP11SDL_Surfaceii, @function
_Z8getpixelP11SDL_Surfaceii:
.LFB16:
	.loc 1 178 0
	.cfi_startproc
	pushl	%ebp
	.cfi_def_cfa_offset 8
	.cfi_offset 5, -8
	movl	%esp, %ebp
	.cfi_def_cfa_register 5
	subl	$24, %esp
	.loc 1 180 0
	subl	$12, %esp
	pushl	8(%ebp)
	call	SDL_LockSurface
	addl	$16, %esp
	.loc 1 182 0
	movl	8(%ebp), %eax
	movl	4(%eax), %eax
	movzbl	9(%eax), %eax
	movzbl	%al, %eax
	movl	%eax, -20(%ebp)
	.loc 1 184 0
	movl	8(%ebp), %eax
	movl	16(%eax), %eax
	cltd
	idivl	-20(%ebp)
	movl	%eax, -16(%ebp)
	.loc 1 185 0
	movl	8(%ebp), %eax
	movl	20(%eax), %edx
	movl	16(%ebp), %eax
	imull	-16(%ebp), %eax
	movl	%eax, %ecx
	movl	12(%ebp), %eax
	addl	%eax, %ecx
	movl	-20(%ebp), %eax
	imull	%ecx, %eax
	addl	%edx, %eax
	movl	%eax, -12(%ebp)
	.loc 1 187 0
	movl	-20(%ebp), %eax
	cmpl	$2, %eax
	je	.L32
	cmpl	$2, %eax
	jg	.L33
	cmpl	$1, %eax
	je	.L34
	jmp	.L31
.L33:
	cmpl	$3, %eax
	je	.L35
	cmpl	$4, %eax
	je	.L36
	jmp	.L31
.L34:
	.loc 1 189 0
	movl	-12(%ebp), %eax
	movzbl	(%eax), %eax
	movzbl	%al, %eax
	jmp	.L37
.L32:
	.loc 1 193 0
	movl	-12(%ebp), %eax
	movzwl	(%eax), %eax
	movzwl	%ax, %eax
	jmp	.L37
.L35:
	.loc 1 200 0
	movl	-12(%ebp), %eax
	movzbl	(%eax), %eax
	movzbl	%al, %eax
	movl	-12(%ebp), %edx
	addl	$1, %edx
	movzbl	(%edx), %edx
	movzbl	%dl, %edx
	sall	$8, %edx
	orl	%eax, %edx
	movl	-12(%ebp), %eax
	addl	$2, %eax
	movzbl	(%eax), %eax
	movzbl	%al, %eax
	sall	$16, %eax
	orl	%edx, %eax
	jmp	.L37
.L36:
	.loc 1 204 0
	movl	-12(%ebp), %eax
	movl	(%eax), %eax
	jmp	.L37
.L31:
	.loc 1 208 0
	movl	$0, %eax
.L37:
	.loc 1 212 0
	leave
	.cfi_restore 5
	.cfi_def_cfa 4, 4
	ret
	.cfi_endproc
.LFE16:
	.size	_Z8getpixelP11SDL_Surfaceii, .-_Z8getpixelP11SDL_Surfaceii
	.section	.rodata
.LC64:
	.string	"Failed to initialize SDL!"
.LC65:
	.string	"Failed to initialize window!"
.LC66:
	.string	"Failed to initialize surface!"
.LC67:
	.string	"We got a motion event."
	.align 4
.LC68:
	.string	"Current mouse position is: (%d, %d)\n"
.LC69:
	.string	"Key is pressed."
	.align 4
.LC70:
	.string	"Unhandled Event type is: ( %d) !\n"
.LC71:
	.string	"default case!"
.LC72:
	.string	"Event queue empty."
.LC73:
	.string	"Exit."
	.text
	.globl	main
	.type	main, @function
main:
.LFB17:
	.loc 1 216 0
	.cfi_startproc
	leal	4(%esp), %ecx
	.cfi_def_cfa 1, 0
	andl	$-16, %esp
	pushl	-4(%ecx)
	pushl	%ebp
	.cfi_escape 0x10,0x5,0x2,0x75,0
	movl	%esp, %ebp
	pushl	%ecx
	.cfi_escape 0xf,0x3,0x75,0x7c,0x6
	subl	$4, %esp
	.loc 1 218 0
	call	_Z4initv
	xorl	$1, %eax
	testb	%al, %al
	je	.L39
	.loc 1 220 0
	subl	$12, %esp
	pushl	$.LC64
	call	puts
	addl	$16, %esp
.L39:
	.loc 1 223 0
	call	_Z6createv
	xorl	$1, %eax
	testb	%al, %al
	je	.L40
	.loc 1 225 0
	subl	$12, %esp
	pushl	$.LC65
	call	puts
	addl	$16, %esp
.L40:
	.loc 1 228 0
	call	_Z14surface_createv
	xorl	$1, %eax
	testb	%al, %al
	je	.L41
	.loc 1 230 0
	subl	$12, %esp
	pushl	$.LC66
	call	puts
	addl	$16, %esp
// цикл while
.L41:
	.loc 1 234 0
   // проверка условия
    movl	event, %eax
	cmpl	$256, %eax
    //выход из цикла
    je	.L42

    .loc 1 236 0
   // SDL_WaitEvent(& event);
    subl	$12, %esp // зачем?
    pushl	$event
	call	SDL_WaitEvent

    addl	$16, %esp // чтоб тут очистить 16 байт?
	.loc 1 237 0
	movl	event, %eax
    // нажали клавишу?
    cmpl	$768, %eax
	je	.L44
    // подвинули мышку?
	cmpl	$1024, %eax
	je	.L45
	cmpl	$512, %eax
	je	.L50
	jmp	.L49
// обработка движения мыши
.L45:
	.loc 1 239 0
	subl	$12, %esp
//  printf("We got a motion event.\n");
    pushl	$.LC67
	call	puts

	addl	$16, %esp
	.loc 1 240 0
    // printf("Current mouse position is: (%d, %d)\n",
    //         event.motion.x, event.motion.y);
    movl	event+24, %edx //отправляем x
	movl	event+20, %eax //отправляем y
	subl	$4, %esp
	pushl	%edx
	pushl	%eax
	pushl	$.LC68
	call	printf
	addl	$16, %esp
	.loc 1 241 0
	jmp	.L47
.L44:
	.loc 1 243 0
	subl	$12, %esp
	pushl	$.LC69
	call	puts
	addl	$16, %esp
	.loc 1 244 0
	jmp	.L47
.L49:
	.loc 1 249 0
	movl	event, %eax
	subl	$8, %esp
	pushl	%eax
	pushl	$.LC70
	call	printf
	addl	$16, %esp
	.loc 1 250 0
	subl	$12, %esp
	pushl	$.LC71
	call	printf
	addl	$16, %esp
	.loc 1 251 0
	jmp	.L47
.L50:
	.loc 1 246 0
	nop
// повтор цикла
.L47:
	.loc 1 234 0 discriminator 1
	jmp	.L41
// выход их цикла
.L42:
	.loc 1 255 0
	subl	$12, %esp
	pushl	$.LC72
	call	puts
	addl	$16, %esp
	.loc 1 256 0
	subl	$12, %esp
	pushl	$.LC73
	call	puts
	addl	$16, %esp
	.loc 1 257 0
	movl	$0, %eax
	.loc 1 258 0
	movl	-4(%ebp), %ecx
	.cfi_def_cfa 1, 0
	leave
	.cfi_restore 5
	leal	-4(%ecx), %esp
	.cfi_def_cfa 4, 4
	ret
	.cfi_endproc
.LFE17:
	.size	main, .-main
.Letext0:
	.file 2 "/usr/include/i386-linux-gnu/sys/types.h"
	.file 3 "/usr/include/stdint.h"
	.file 4 "/usr/include/SDL2/SDL_stdinc.h"
	.file 5 "/usr/include/SDL2/SDL_pixels.h"
	.file 6 "/usr/include/SDL2/SDL_rect.h"
	.file 7 "/usr/include/SDL2/SDL_surface.h"
	.file 8 "/usr/include/SDL2/SDL_video.h"
	.file 9 "/usr/include/SDL2/SDL_scancode.h"
	.file 10 "/usr/include/SDL2/SDL_keycode.h"
	.file 11 "/usr/include/SDL2/SDL_keyboard.h"
	.file 12 "/usr/include/SDL2/SDL_joystick.h"
	.file 13 "/usr/include/SDL2/SDL_touch.h"
	.file 14 "/usr/include/SDL2/SDL_gesture.h"
	.file 15 "/usr/include/SDL2/SDL_events.h"
	.file 16 "/usr/include/SDL2/SDL_messagebox.h"
	.section	.note.GNU-stack,"",@progbits
