
forth:     file format elf32-i386


Disassembly of section .init:

08048804 <_init>:
 8048804:	53                   	push   %ebx
 8048805:	83 ec 08             	sub    $0x8,%esp
 8048808:	e8 13 02 00 00       	call   8048a20 <__x86.get_pc_thunk.bx>
 804880d:	81 c3 f3 37 00 00    	add    $0x37f3,%ebx
 8048813:	8b 83 fc ff ff ff    	mov    -0x4(%ebx),%eax
 8048819:	85 c0                	test   %eax,%eax
 804881b:	74 05                	je     8048822 <_init+0x1e>
 804881d:	e8 be 01 00 00       	call   80489e0 <puts@plt+0x10>
 8048822:	83 c4 08             	add    $0x8,%esp
 8048825:	5b                   	pop    %ebx
 8048826:	c3                   	ret    

Disassembly of section .plt:

08048830 <SDL_CreateWindow@plt-0x10>:
 8048830:	ff 35 04 c0 04 08    	pushl  0x804c004
 8048836:	ff 25 08 c0 04 08    	jmp    *0x804c008
 804883c:	00 00                	add    %al,(%eax)
	...

08048840 <SDL_CreateWindow@plt>:
 8048840:	ff 25 0c c0 04 08    	jmp    *0x804c00c
 8048846:	68 00 00 00 00       	push   $0x0
 804884b:	e9 e0 ff ff ff       	jmp    8048830 <_init+0x2c>

08048850 <SDL_Quit@plt>:
 8048850:	ff 25 10 c0 04 08    	jmp    *0x804c010
 8048856:	68 08 00 00 00       	push   $0x8
 804885b:	e9 d0 ff ff ff       	jmp    8048830 <_init+0x2c>

08048860 <SDL_RenderPresent@plt>:
 8048860:	ff 25 14 c0 04 08    	jmp    *0x804c014
 8048866:	68 10 00 00 00       	push   $0x10
 804886b:	e9 c0 ff ff ff       	jmp    8048830 <_init+0x2c>

08048870 <SDL_CreateWindowAndRenderer@plt>:
 8048870:	ff 25 18 c0 04 08    	jmp    *0x804c018
 8048876:	68 18 00 00 00       	push   $0x18
 804887b:	e9 b0 ff ff ff       	jmp    8048830 <_init+0x2c>

08048880 <SDL_GetVersion@plt>:
 8048880:	ff 25 1c c0 04 08    	jmp    *0x804c01c
 8048886:	68 20 00 00 00       	push   $0x20
 804888b:	e9 a0 ff ff ff       	jmp    8048830 <_init+0x2c>

08048890 <SDL_RWFromFile@plt>:
 8048890:	ff 25 20 c0 04 08    	jmp    *0x804c020
 8048896:	68 28 00 00 00       	push   $0x28
 804889b:	e9 90 ff ff ff       	jmp    8048830 <_init+0x2c>

080488a0 <SDL_MapRGB@plt>:
 80488a0:	ff 25 24 c0 04 08    	jmp    *0x804c024
 80488a6:	68 30 00 00 00       	push   $0x30
 80488ab:	e9 80 ff ff ff       	jmp    8048830 <_init+0x2c>

080488b0 <fprintf@plt>:
 80488b0:	ff 25 28 c0 04 08    	jmp    *0x804c028
 80488b6:	68 38 00 00 00       	push   $0x38
 80488bb:	e9 70 ff ff ff       	jmp    8048830 <_init+0x2c>

080488c0 <__cxa_atexit@plt>:
 80488c0:	ff 25 2c c0 04 08    	jmp    *0x804c02c
 80488c6:	68 40 00 00 00       	push   $0x40
 80488cb:	e9 60 ff ff ff       	jmp    8048830 <_init+0x2c>

080488d0 <SDL_Delay@plt>:
 80488d0:	ff 25 30 c0 04 08    	jmp    *0x804c030
 80488d6:	68 48 00 00 00       	push   $0x48
 80488db:	e9 50 ff ff ff       	jmp    8048830 <_init+0x2c>

080488e0 <SDL_GetError@plt>:
 80488e0:	ff 25 34 c0 04 08    	jmp    *0x804c034
 80488e6:	68 50 00 00 00       	push   $0x50
 80488eb:	e9 40 ff ff ff       	jmp    8048830 <_init+0x2c>

080488f0 <time@plt>:
 80488f0:	ff 25 38 c0 04 08    	jmp    *0x804c038
 80488f6:	68 58 00 00 00       	push   $0x58
 80488fb:	e9 30 ff ff ff       	jmp    8048830 <_init+0x2c>

08048900 <SDL_Init@plt>:
 8048900:	ff 25 3c c0 04 08    	jmp    *0x804c03c
 8048906:	68 60 00 00 00       	push   $0x60
 804890b:	e9 20 ff ff ff       	jmp    8048830 <_init+0x2c>

08048910 <SDL_LoadBMP_RW@plt>:
 8048910:	ff 25 40 c0 04 08    	jmp    *0x804c040
 8048916:	68 68 00 00 00       	push   $0x68
 804891b:	e9 10 ff ff ff       	jmp    8048830 <_init+0x2c>

08048920 <srand@plt>:
 8048920:	ff 25 44 c0 04 08    	jmp    *0x804c044
 8048926:	68 70 00 00 00       	push   $0x70
 804892b:	e9 00 ff ff ff       	jmp    8048830 <_init+0x2c>

08048930 <SDL_RenderClear@plt>:
 8048930:	ff 25 48 c0 04 08    	jmp    *0x804c048
 8048936:	68 78 00 00 00       	push   $0x78
 804893b:	e9 f0 fe ff ff       	jmp    8048830 <_init+0x2c>

08048940 <__libc_start_main@plt>:
 8048940:	ff 25 4c c0 04 08    	jmp    *0x804c04c
 8048946:	68 80 00 00 00       	push   $0x80
 804894b:	e9 e0 fe ff ff       	jmp    8048830 <_init+0x2c>

08048950 <__stack_chk_fail@plt>:
 8048950:	ff 25 50 c0 04 08    	jmp    *0x804c050
 8048956:	68 88 00 00 00       	push   $0x88
 804895b:	e9 d0 fe ff ff       	jmp    8048830 <_init+0x2c>

08048960 <SDL_GetWindowSurface@plt>:
 8048960:	ff 25 54 c0 04 08    	jmp    *0x804c054
 8048966:	68 90 00 00 00       	push   $0x90
 804896b:	e9 c0 fe ff ff       	jmp    8048830 <_init+0x2c>

08048970 <SDL_LockSurface@plt>:
 8048970:	ff 25 58 c0 04 08    	jmp    *0x804c058
 8048976:	68 98 00 00 00       	push   $0x98
 804897b:	e9 b0 fe ff ff       	jmp    8048830 <_init+0x2c>

08048980 <SDL_CreateTextureFromSurface@plt>:
 8048980:	ff 25 5c c0 04 08    	jmp    *0x804c05c
 8048986:	68 a0 00 00 00       	push   $0xa0
 804898b:	e9 a0 fe ff ff       	jmp    8048830 <_init+0x2c>

08048990 <SDL_UnlockSurface@plt>:
 8048990:	ff 25 60 c0 04 08    	jmp    *0x804c060
 8048996:	68 a8 00 00 00       	push   $0xa8
 804899b:	e9 90 fe ff ff       	jmp    8048830 <_init+0x2c>

080489a0 <SDL_SetRenderDrawColor@plt>:
 80489a0:	ff 25 64 c0 04 08    	jmp    *0x804c064
 80489a6:	68 b0 00 00 00       	push   $0xb0
 80489ab:	e9 80 fe ff ff       	jmp    8048830 <_init+0x2c>

080489b0 <exit@plt>:
 80489b0:	ff 25 68 c0 04 08    	jmp    *0x804c068
 80489b6:	68 b8 00 00 00       	push   $0xb8
 80489bb:	e9 70 fe ff ff       	jmp    8048830 <_init+0x2c>

080489c0 <printf@plt>:
 80489c0:	ff 25 6c c0 04 08    	jmp    *0x804c06c
 80489c6:	68 c0 00 00 00       	push   $0xc0
 80489cb:	e9 60 fe ff ff       	jmp    8048830 <_init+0x2c>

080489d0 <puts@plt>:
 80489d0:	ff 25 70 c0 04 08    	jmp    *0x804c070
 80489d6:	68 c8 00 00 00       	push   $0xc8
 80489db:	e9 50 fe ff ff       	jmp    8048830 <_init+0x2c>

Disassembly of section .plt.got:

080489e0 <.plt.got>:
 80489e0:	ff 25 fc bf 04 08    	jmp    *0x804bffc
 80489e6:	66 90                	xchg   %ax,%ax

Disassembly of section .text:

080489f0 <_start>:
 80489f0:	31 ed                	xor    %ebp,%ebp
 80489f2:	5e                   	pop    %esi
 80489f3:	89 e1                	mov    %esp,%ecx
 80489f5:	83 e4 f0             	and    $0xfffffff0,%esp
 80489f8:	50                   	push   %eax
 80489f9:	54                   	push   %esp
 80489fa:	52                   	push   %edx
 80489fb:	68 70 95 04 08       	push   $0x8049570
 8048a00:	68 10 95 04 08       	push   $0x8049510
 8048a05:	51                   	push   %ecx
 8048a06:	56                   	push   %esi
 8048a07:	68 f5 94 04 08       	push   $0x80494f5
 8048a0c:	e8 2f ff ff ff       	call   8048940 <__libc_start_main@plt>
 8048a11:	f4                   	hlt    
 8048a12:	66 90                	xchg   %ax,%ax
 8048a14:	66 90                	xchg   %ax,%ax
 8048a16:	66 90                	xchg   %ax,%ax
 8048a18:	66 90                	xchg   %ax,%ax
 8048a1a:	66 90                	xchg   %ax,%ax
 8048a1c:	66 90                	xchg   %ax,%ax
 8048a1e:	66 90                	xchg   %ax,%ax

08048a20 <__x86.get_pc_thunk.bx>:
 8048a20:	8b 1c 24             	mov    (%esp),%ebx
 8048a23:	c3                   	ret    
 8048a24:	66 90                	xchg   %ax,%ax
 8048a26:	66 90                	xchg   %ax,%ax
 8048a28:	66 90                	xchg   %ax,%ax
 8048a2a:	66 90                	xchg   %ax,%ax
 8048a2c:	66 90                	xchg   %ax,%ax
 8048a2e:	66 90                	xchg   %ax,%ax

08048a30 <deregister_tm_clones>:
 8048a30:	b8 c3 c0 04 08       	mov    $0x804c0c3,%eax
 8048a35:	2d c0 c0 04 08       	sub    $0x804c0c0,%eax
 8048a3a:	83 f8 06             	cmp    $0x6,%eax
 8048a3d:	76 1a                	jbe    8048a59 <deregister_tm_clones+0x29>
 8048a3f:	b8 00 00 00 00       	mov    $0x0,%eax
 8048a44:	85 c0                	test   %eax,%eax
 8048a46:	74 11                	je     8048a59 <deregister_tm_clones+0x29>
 8048a48:	55                   	push   %ebp
 8048a49:	89 e5                	mov    %esp,%ebp
 8048a4b:	83 ec 14             	sub    $0x14,%esp
 8048a4e:	68 c0 c0 04 08       	push   $0x804c0c0
 8048a53:	ff d0                	call   *%eax
 8048a55:	83 c4 10             	add    $0x10,%esp
 8048a58:	c9                   	leave  
 8048a59:	f3 c3                	repz ret 
 8048a5b:	90                   	nop
 8048a5c:	8d 74 26 00          	lea    0x0(%esi,%eiz,1),%esi

08048a60 <register_tm_clones>:
 8048a60:	b8 c0 c0 04 08       	mov    $0x804c0c0,%eax
 8048a65:	2d c0 c0 04 08       	sub    $0x804c0c0,%eax
 8048a6a:	c1 f8 02             	sar    $0x2,%eax
 8048a6d:	89 c2                	mov    %eax,%edx
 8048a6f:	c1 ea 1f             	shr    $0x1f,%edx
 8048a72:	01 d0                	add    %edx,%eax
 8048a74:	d1 f8                	sar    %eax
 8048a76:	74 1b                	je     8048a93 <register_tm_clones+0x33>
 8048a78:	ba 00 00 00 00       	mov    $0x0,%edx
 8048a7d:	85 d2                	test   %edx,%edx
 8048a7f:	74 12                	je     8048a93 <register_tm_clones+0x33>
 8048a81:	55                   	push   %ebp
 8048a82:	89 e5                	mov    %esp,%ebp
 8048a84:	83 ec 10             	sub    $0x10,%esp
 8048a87:	50                   	push   %eax
 8048a88:	68 c0 c0 04 08       	push   $0x804c0c0
 8048a8d:	ff d2                	call   *%edx
 8048a8f:	83 c4 10             	add    $0x10,%esp
 8048a92:	c9                   	leave  
 8048a93:	f3 c3                	repz ret 
 8048a95:	8d 74 26 00          	lea    0x0(%esi,%eiz,1),%esi
 8048a99:	8d bc 27 00 00 00 00 	lea    0x0(%edi,%eiz,1),%edi

08048aa0 <__do_global_dtors_aux>:
 8048aa0:	80 3d 04 d0 04 08 00 	cmpb   $0x0,0x804d004
 8048aa7:	75 13                	jne    8048abc <__do_global_dtors_aux+0x1c>
 8048aa9:	55                   	push   %ebp
 8048aaa:	89 e5                	mov    %esp,%ebp
 8048aac:	83 ec 08             	sub    $0x8,%esp
 8048aaf:	e8 7c ff ff ff       	call   8048a30 <deregister_tm_clones>
 8048ab4:	c6 05 04 d0 04 08 01 	movb   $0x1,0x804d004
 8048abb:	c9                   	leave  
 8048abc:	f3 c3                	repz ret 
 8048abe:	66 90                	xchg   %ax,%ax

08048ac0 <frame_dummy>:
 8048ac0:	b8 08 bf 04 08       	mov    $0x804bf08,%eax
 8048ac5:	8b 10                	mov    (%eax),%edx
 8048ac7:	85 d2                	test   %edx,%edx
 8048ac9:	75 05                	jne    8048ad0 <frame_dummy+0x10>
 8048acb:	eb 93                	jmp    8048a60 <register_tm_clones>
 8048acd:	8d 76 00             	lea    0x0(%esi),%esi
 8048ad0:	ba 00 00 00 00       	mov    $0x0,%edx
 8048ad5:	85 d2                	test   %edx,%edx
 8048ad7:	74 f2                	je     8048acb <frame_dummy+0xb>
 8048ad9:	55                   	push   %ebp
 8048ada:	89 e5                	mov    %esp,%ebp
 8048adc:	83 ec 14             	sub    $0x14,%esp
 8048adf:	50                   	push   %eax
 8048ae0:	ff d2                	call   *%edx
 8048ae2:	83 c4 10             	add    $0x10,%esp
 8048ae5:	c9                   	leave  
 8048ae6:	e9 75 ff ff ff       	jmp    8048a60 <register_tm_clones>

08048aeb <load_sprite>:
 8048aeb:	55                   	push   %ebp
 8048aec:	89 e5                	mov    %esp,%ebp
 8048aee:	83 ec 08             	sub    $0x8,%esp
 8048af1:	83 ec 08             	sub    $0x8,%esp
 8048af4:	68 d0 95 04 08       	push   $0x80495d0
 8048af9:	ff 75 08             	pushl  0x8(%ebp)
 8048afc:	e8 8f fd ff ff       	call   8048890 <SDL_RWFromFile@plt>
 8048b01:	83 c4 10             	add    $0x10,%esp
 8048b04:	83 ec 08             	sub    $0x8,%esp
 8048b07:	6a 01                	push   $0x1
 8048b09:	50                   	push   %eax
 8048b0a:	e8 01 fe ff ff       	call   8048910 <SDL_LoadBMP_RW@plt>
 8048b0f:	83 c4 10             	add    $0x10,%esp
 8048b12:	89 c2                	mov    %eax,%edx
 8048b14:	a1 08 d0 04 08       	mov    0x804d008,%eax
 8048b19:	83 ec 08             	sub    $0x8,%esp
 8048b1c:	52                   	push   %edx
 8048b1d:	50                   	push   %eax
 8048b1e:	e8 5d fe ff ff       	call   8048980 <SDL_CreateTextureFromSurface@plt>
 8048b23:	83 c4 10             	add    $0x10,%esp
 8048b26:	c9                   	leave  
 8048b27:	c3                   	ret    

08048b28 <init>:
 8048b28:	55                   	push   %ebp
 8048b29:	89 e5                	mov    %esp,%ebp
 8048b2b:	83 ec 18             	sub    $0x18,%esp
 8048b2e:	65 a1 14 00 00 00    	mov    %gs:0x14,%eax
 8048b34:	89 45 f4             	mov    %eax,-0xc(%ebp)
 8048b37:	31 c0                	xor    %eax,%eax
 8048b39:	c7 45 f0 00 00 00 00 	movl   $0x0,-0x10(%ebp)
 8048b40:	83 ec 0c             	sub    $0xc,%esp
 8048b43:	6a 20                	push   $0x20
 8048b45:	e8 b6 fd ff ff       	call   8048900 <SDL_Init@plt>
 8048b4a:	83 c4 10             	add    $0x10,%esp
 8048b4d:	85 c0                	test   %eax,%eax
 8048b4f:	74 1e                	je     8048b6f <init+0x47>
 8048b51:	e8 8a fd ff ff       	call   80488e0 <SDL_GetError@plt>
 8048b56:	89 c2                	mov    %eax,%edx
 8048b58:	a1 00 d0 04 08       	mov    0x804d000,%eax
 8048b5d:	83 ec 04             	sub    $0x4,%esp
 8048b60:	52                   	push   %edx
 8048b61:	68 d3 95 04 08       	push   $0x80495d3
 8048b66:	50                   	push   %eax
 8048b67:	e8 44 fd ff ff       	call   80488b0 <fprintf@plt>
 8048b6c:	83 c4 10             	add    $0x10,%esp
 8048b6f:	83 ec 0c             	sub    $0xc,%esp
 8048b72:	68 50 88 04 08       	push   $0x8048850
 8048b77:	e8 04 0a 00 00       	call   8049580 <atexit>
 8048b7c:	83 c4 10             	add    $0x10,%esp
 8048b7f:	83 ec 0c             	sub    $0xc,%esp
 8048b82:	68 08 d0 04 08       	push   $0x804d008
 8048b87:	8d 45 f0             	lea    -0x10(%ebp),%eax
 8048b8a:	50                   	push   %eax
 8048b8b:	6a 00                	push   $0x0
 8048b8d:	68 e0 01 00 00       	push   $0x1e0
 8048b92:	68 20 03 00 00       	push   $0x320
 8048b97:	e8 d4 fc ff ff       	call   8048870 <SDL_CreateWindowAndRenderer@plt>
 8048b9c:	83 c4 20             	add    $0x20,%esp
 8048b9f:	a1 08 d0 04 08       	mov    0x804d008,%eax
 8048ba4:	83 ec 0c             	sub    $0xc,%esp
 8048ba7:	68 ff 00 00 00       	push   $0xff
 8048bac:	68 ff 00 00 00       	push   $0xff
 8048bb1:	68 ff 00 00 00       	push   $0xff
 8048bb6:	68 ff 00 00 00       	push   $0xff
 8048bbb:	50                   	push   %eax
 8048bbc:	e8 df fd ff ff       	call   80489a0 <SDL_SetRenderDrawColor@plt>
 8048bc1:	83 c4 20             	add    $0x20,%esp
 8048bc4:	a1 08 d0 04 08       	mov    0x804d008,%eax
 8048bc9:	83 ec 0c             	sub    $0xc,%esp
 8048bcc:	50                   	push   %eax
 8048bcd:	e8 5e fd ff ff       	call   8048930 <SDL_RenderClear@plt>
 8048bd2:	83 c4 10             	add    $0x10,%esp
 8048bd5:	a1 08 d0 04 08       	mov    0x804d008,%eax
 8048bda:	83 ec 0c             	sub    $0xc,%esp
 8048bdd:	50                   	push   %eax
 8048bde:	e8 7d fc ff ff       	call   8048860 <SDL_RenderPresent@plt>
 8048be3:	83 c4 10             	add    $0x10,%esp
 8048be6:	83 ec 0c             	sub    $0xc,%esp
 8048be9:	6a 00                	push   $0x0
 8048beb:	e8 00 fd ff ff       	call   80488f0 <time@plt>
 8048bf0:	83 c4 10             	add    $0x10,%esp
 8048bf3:	83 ec 0c             	sub    $0xc,%esp
 8048bf6:	50                   	push   %eax
 8048bf7:	e8 24 fd ff ff       	call   8048920 <srand@plt>
 8048bfc:	83 c4 10             	add    $0x10,%esp
 8048bff:	90                   	nop
 8048c00:	8b 45 f4             	mov    -0xc(%ebp),%eax
 8048c03:	65 33 05 14 00 00 00 	xor    %gs:0x14,%eax
 8048c0a:	74 05                	je     8048c11 <init+0xe9>
 8048c0c:	e8 3f fd ff ff       	call   8048950 <__stack_chk_fail@plt>
 8048c11:	c9                   	leave  
 8048c12:	c3                   	ret    

08048c13 <gameover>:
 8048c13:	55                   	push   %ebp
 8048c14:	89 e5                	mov    %esp,%ebp
 8048c16:	83 ec 08             	sub    $0x8,%esp
 8048c19:	0f b6 05 c2 21 06 08 	movzbl 0x80621c2,%eax
 8048c20:	0f b6 c0             	movzbl %al,%eax
 8048c23:	83 ec 08             	sub    $0x8,%esp
 8048c26:	50                   	push   %eax
 8048c27:	68 e1 95 04 08       	push   $0x80495e1
 8048c2c:	e8 8f fd ff ff       	call   80489c0 <printf@plt>
 8048c31:	83 c4 10             	add    $0x10,%esp
 8048c34:	0f b6 05 20 20 06 08 	movzbl 0x8062020,%eax
 8048c3b:	0f be d0             	movsbl %al,%edx
 8048c3e:	0f b6 05 e0 23 06 08 	movzbl 0x80623e0,%eax
 8048c45:	0f be c0             	movsbl %al,%eax
 8048c48:	83 ec 04             	sub    $0x4,%esp
 8048c4b:	52                   	push   %edx
 8048c4c:	50                   	push   %eax
 8048c4d:	68 f3 95 04 08       	push   $0x80495f3
 8048c52:	e8 69 fd ff ff       	call   80489c0 <printf@plt>
 8048c57:	83 c4 10             	add    $0x10,%esp
 8048c5a:	83 ec 0c             	sub    $0xc,%esp
 8048c5d:	68 05 96 04 08       	push   $0x8049605
 8048c62:	e8 69 fd ff ff       	call   80489d0 <puts@plt>
 8048c67:	83 c4 10             	add    $0x10,%esp
 8048c6a:	83 ec 0c             	sub    $0xc,%esp
 8048c6d:	6a 00                	push   $0x0
 8048c6f:	e8 3c fd ff ff       	call   80489b0 <exit@plt>

08048c74 <code_STATE>:
 8048c74:	68 7c c0 04 08       	push   $0x804c07c
 8048c79:	ad                   	lods   %ds:(%esi),%eax
 8048c7a:	ff 20                	jmp    *(%eax)

08048c7c <code_HERE>:
 8048c7c:	68 80 c0 04 08       	push   $0x804c080
 8048c81:	ad                   	lods   %ds:(%esi),%eax
 8048c82:	ff 20                	jmp    *(%eax)

08048c84 <code_LATEST>:
 8048c84:	68 84 c0 04 08       	push   $0x804c084
 8048c89:	ad                   	lods   %ds:(%esi),%eax
 8048c8a:	ff 20                	jmp    *(%eax)

08048c8c <code_SZ>:
 8048c8c:	68 88 c0 04 08       	push   $0x804c088
 8048c91:	ad                   	lods   %ds:(%esi),%eax
 8048c92:	ff 20                	jmp    *(%eax)

08048c94 <code_BASE>:
 8048c94:	68 8c c0 04 08       	push   $0x804c08c
 8048c99:	ad                   	lods   %ds:(%esi),%eax
 8048c9a:	ff 20                	jmp    *(%eax)

08048c9c <code_VERSION>:
 8048c9c:	6a 2f                	push   $0x2f
 8048c9e:	ad                   	lods   %ds:(%esi),%eax
 8048c9f:	ff 20                	jmp    *(%eax)

08048ca1 <code_RZ>:
 8048ca1:	68 00 10 05 08       	push   $0x8051000
 8048ca6:	ad                   	lods   %ds:(%esi),%eax
 8048ca7:	ff 20                	jmp    *(%eax)

08048ca9 <code___DOCOL>:
 8048ca9:	68 d0 8f 04 08       	push   $0x8048fd0
 8048cae:	ad                   	lods   %ds:(%esi),%eax
 8048caf:	ff 20                	jmp    *(%eax)

08048cb1 <code___F_IMMED>:
 8048cb1:	68 80 00 00 00       	push   $0x80
 8048cb6:	ad                   	lods   %ds:(%esi),%eax
 8048cb7:	ff 20                	jmp    *(%eax)

08048cb9 <code___F_HIDDEN>:
 8048cb9:	6a 20                	push   $0x20
 8048cbb:	ad                   	lods   %ds:(%esi),%eax
 8048cbc:	ff 20                	jmp    *(%eax)

08048cbe <code___F_LENMASK>:
 8048cbe:	6a 1f                	push   $0x1f
 8048cc0:	ad                   	lods   %ds:(%esi),%eax
 8048cc1:	ff 20                	jmp    *(%eax)

08048cc3 <code_SYS_EXIT>:
 8048cc3:	6a 01                	push   $0x1
 8048cc5:	ad                   	lods   %ds:(%esi),%eax
 8048cc6:	ff 20                	jmp    *(%eax)

08048cc8 <code_SYS_OPEN>:
 8048cc8:	6a 05                	push   $0x5
 8048cca:	ad                   	lods   %ds:(%esi),%eax
 8048ccb:	ff 20                	jmp    *(%eax)

08048ccd <code_SYS_CLOSE>:
 8048ccd:	6a 06                	push   $0x6
 8048ccf:	ad                   	lods   %ds:(%esi),%eax
 8048cd0:	ff 20                	jmp    *(%eax)

08048cd2 <code_SYS_READ>:
 8048cd2:	6a 03                	push   $0x3
 8048cd4:	ad                   	lods   %ds:(%esi),%eax
 8048cd5:	ff 20                	jmp    *(%eax)

08048cd7 <code_SYS_WRITE>:
 8048cd7:	6a 04                	push   $0x4
 8048cd9:	ad                   	lods   %ds:(%esi),%eax
 8048cda:	ff 20                	jmp    *(%eax)

08048cdc <code_SYS_CREAT>:
 8048cdc:	6a 08                	push   $0x8
 8048cde:	ad                   	lods   %ds:(%esi),%eax
 8048cdf:	ff 20                	jmp    *(%eax)

08048ce1 <code___O_RDONLY>:
 8048ce1:	6a 00                	push   $0x0
 8048ce3:	ad                   	lods   %ds:(%esi),%eax
 8048ce4:	ff 20                	jmp    *(%eax)

08048ce6 <code___O_WRONLY>:
 8048ce6:	6a 01                	push   $0x1
 8048ce8:	ad                   	lods   %ds:(%esi),%eax
 8048ce9:	ff 20                	jmp    *(%eax)

08048ceb <code___O_RDWR>:
 8048ceb:	6a 02                	push   $0x2
 8048ced:	ad                   	lods   %ds:(%esi),%eax
 8048cee:	ff 20                	jmp    *(%eax)

08048cf0 <code___O_CREAT>:
 8048cf0:	6a 40                	push   $0x40
 8048cf2:	ad                   	lods   %ds:(%esi),%eax
 8048cf3:	ff 20                	jmp    *(%eax)

08048cf5 <code___O_EXCL>:
 8048cf5:	68 80 00 00 00       	push   $0x80
 8048cfa:	ad                   	lods   %ds:(%esi),%eax
 8048cfb:	ff 20                	jmp    *(%eax)

08048cfd <code___O_TRUNC>:
 8048cfd:	68 00 02 00 00       	push   $0x200
 8048d02:	ad                   	lods   %ds:(%esi),%eax
 8048d03:	ff 20                	jmp    *(%eax)

08048d05 <code___O_APPEND>:
 8048d05:	68 00 04 00 00       	push   $0x400
 8048d0a:	ad                   	lods   %ds:(%esi),%eax
 8048d0b:	ff 20                	jmp    *(%eax)

08048d0d <code___O_NONBLOCK>:
 8048d0d:	68 00 08 00 00       	push   $0x800
 8048d12:	ad                   	lods   %ds:(%esi),%eax
 8048d13:	ff 20                	jmp    *(%eax)

08048d15 <code_SDLINIT>:
 8048d15:	68 00 e0 04 08       	push   $0x804e000
 8048d1a:	e8 61 fb ff ff       	call   8048880 <SDL_GetVersion@plt>
 8048d1f:	83 c4 04             	add    $0x4,%esp
 8048d22:	31 c0                	xor    %eax,%eax
 8048d24:	a0 02 e0 04 08       	mov    0x804e002,%al
 8048d29:	50                   	push   %eax
 8048d2a:	a0 01 e0 04 08       	mov    0x804e001,%al
 8048d2f:	50                   	push   %eax
 8048d30:	a0 00 e0 04 08       	mov    0x804e000,%al
 8048d35:	50                   	push   %eax
 8048d36:	68 c8 97 04 08       	push   $0x80497c8
 8048d3b:	e8 80 fc ff ff       	call   80489c0 <printf@plt>
 8048d40:	83 c4 10             	add    $0x10,%esp
 8048d43:	6a 20                	push   $0x20
 8048d45:	e8 b6 fb ff ff       	call   8048900 <SDL_Init@plt>
 8048d4a:	83 c4 04             	add    $0x4,%esp
 8048d4d:	c1 e8 1f             	shr    $0x1f,%eax
 8048d50:	84 c0                	test   %al,%al
 8048d52:	74 1a                	je     8048d6e <_sdlinit_success>

08048d54 <_sdlinit_err>:
 8048d54:	e8 87 fb ff ff       	call   80488e0 <SDL_GetError@plt>
 8048d59:	50                   	push   %eax
 8048d5a:	68 ef 97 04 08       	push   $0x80497ef
 8048d5f:	e8 5c fc ff ff       	call   80489c0 <printf@plt>
 8048d64:	83 c4 08             	add    $0x8,%esp
 8048d67:	b8 00 00 00 00       	mov    $0x0,%eax
 8048d6c:	eb 12                	jmp    8048d80 <_sdlinit_ret>

08048d6e <_sdlinit_success>:
 8048d6e:	68 1b 98 04 08       	push   $0x804981b
 8048d73:	e8 58 fc ff ff       	call   80489d0 <puts@plt>
 8048d78:	83 c4 04             	add    $0x4,%esp
 8048d7b:	b8 01 00 00 00       	mov    $0x1,%eax

08048d80 <_sdlinit_ret>:
 8048d80:	ad                   	lods   %ds:(%esi),%eax
 8048d81:	ff 20                	jmp    *(%eax)

08048d83 <code_SDLQUIT>:
 8048d83:	e8 c8 fa ff ff       	call   8048850 <SDL_Quit@plt>
 8048d88:	68 40 98 04 08       	push   $0x8049840
 8048d8d:	e8 3e fc ff ff       	call   80489d0 <puts@plt>
 8048d92:	83 c4 04             	add    $0x4,%esp
 8048d95:	ad                   	lods   %ds:(%esi),%eax
 8048d96:	ff 20                	jmp    *(%eax)

08048d98 <code_SDLWND>:
 8048d98:	6a 04                	push   $0x4
 8048d9a:	68 e0 01 00 00       	push   $0x1e0
 8048d9f:	68 80 02 00 00       	push   $0x280
 8048da4:	68 00 00 ff 1f       	push   $0x1fff0000
 8048da9:	68 00 00 ff 1f       	push   $0x1fff0000
 8048dae:	68 60 98 04 08       	push   $0x8049860
 8048db3:	e8 88 fa ff ff       	call   8048840 <SDL_CreateWindow@plt>
 8048db8:	83 c4 18             	add    $0x18,%esp
 8048dbb:	a3 03 e0 04 08       	mov    %eax,0x804e003
 8048dc0:	85 c0                	test   %eax,%eax
 8048dc2:	75 16                	jne    8048dda <_sdlwnd_ready_window>

08048dc4 <_sdlwnd_failed_window>:
 8048dc4:	e8 17 fb ff ff       	call   80488e0 <SDL_GetError@plt>
 8048dc9:	50                   	push   %eax
 8048dca:	ff 35 6d 98 04 08    	pushl  0x804986d
 8048dd0:	e8 eb fb ff ff       	call   80489c0 <printf@plt>
 8048dd5:	83 c4 08             	add    $0x8,%esp
 8048dd8:	eb 05                	jmp    8048ddf <_sdlwnd_ret>

08048dda <_sdlwnd_ready_window>:
 8048dda:	b8 01 00 00 00       	mov    $0x1,%eax

08048ddf <_sdlwnd_ret>:
 8048ddf:	ad                   	lods   %ds:(%esi),%eax
 8048de0:	ff 20                	jmp    *(%eax)

08048de2 <code_SURFACE>:
 8048de2:	a1 03 e0 04 08       	mov    0x804e003,%eax
 8048de7:	50                   	push   %eax
 8048de8:	e8 73 fb ff ff       	call   8048960 <SDL_GetWindowSurface@plt>
 8048ded:	a3 07 e0 04 08       	mov    %eax,0x804e007
 8048df2:	85 c0                	test   %eax,%eax
 8048df4:	75 15                	jne    8048e0b <_surface_success>

08048df6 <_surface_err>:
 8048df6:	e8 e5 fa ff ff       	call   80488e0 <SDL_GetError@plt>
 8048dfb:	50                   	push   %eax
 8048dfc:	68 a8 98 04 08       	push   $0x80498a8
 8048e01:	e8 ba fb ff ff       	call   80489c0 <printf@plt>
 8048e06:	83 c4 0c             	add    $0xc,%esp
 8048e09:	eb 05                	jmp    8048e10 <_surface_ret>

08048e0b <_surface_success>:
 8048e0b:	b8 01 00 00 00       	mov    $0x1,%eax

08048e10 <_surface_ret>:
 8048e10:	ad                   	lods   %ds:(%esi),%eax
 8048e11:	ff 20                	jmp    *(%eax)

08048e13 <code_DELAY>:
 8048e13:	ff 35 03 e0 04 08    	pushl  0x804e003
 8048e19:	68 88 13 00 00       	push   $0x1388
 8048e1e:	e8 ad fa ff ff       	call   80488d0 <SDL_Delay@plt>
 8048e23:	ad                   	lods   %ds:(%esi),%eax
 8048e24:	ff 20                	jmp    *(%eax)

08048e26 <code_GETPIX>:
 8048e26:	55                   	push   %ebp
 8048e27:	89 e5                	mov    %esp,%ebp
 8048e29:	83 ec 10             	sub    $0x10,%esp
 8048e2c:	a1 07 e0 04 08       	mov    0x804e007,%eax
 8048e31:	50                   	push   %eax
 8048e32:	e8 39 fb ff ff       	call   8048970 <SDL_LockSurface@plt>
 8048e37:	83 c4 04             	add    $0x4,%esp
 8048e3a:	a1 07 e0 04 08       	mov    0x804e007,%eax
 8048e3f:	8b 40 04             	mov    0x4(%eax),%eax
 8048e42:	0f b6 40 09          	movzbl 0x9(%eax),%eax
 8048e46:	0f b6 c0             	movzbl %al,%eax
 8048e49:	89 45 f0             	mov    %eax,-0x10(%ebp)
 8048e4c:	a1 07 e0 04 08       	mov    0x804e007,%eax
 8048e51:	8b 50 14             	mov    0x14(%eax),%edx
 8048e54:	a1 07 e0 04 08       	mov    0x804e007,%eax
 8048e59:	8b 40 10             	mov    0x10(%eax),%eax
 8048e5c:	0f af 45 10          	imul   0x10(%ebp),%eax
 8048e60:	89 c1                	mov    %eax,%ecx
 8048e62:	8b 45 0c             	mov    0xc(%ebp),%eax
 8048e65:	0f af 45 f0          	imul   -0x10(%ebp),%eax
 8048e69:	01 c8                	add    %ecx,%eax
 8048e6b:	01 d0                	add    %edx,%eax
 8048e6d:	89 45 f4             	mov    %eax,-0xc(%ebp)
 8048e70:	8b 45 f0             	mov    -0x10(%ebp),%eax

08048e73 <unlock>:
 8048e73:	a1 07 e0 04 08       	mov    0x804e007,%eax
 8048e78:	50                   	push   %eax
 8048e79:	e8 12 fb ff ff       	call   8048990 <SDL_UnlockSurface@plt>
 8048e7e:	83 ec 04             	sub    $0x4,%esp

08048e81 <ret>:
 8048e81:	c9                   	leave  
 8048e82:	ad                   	lods   %ds:(%esi),%eax
 8048e83:	ff 20                	jmp    *(%eax)

08048e85 <code_DRAWPIX>:
 8048e85:	55                   	push   %ebp
 8048e86:	89 e5                	mov    %esp,%ebp
 8048e88:	53                   	push   %ebx
 8048e89:	83 ec 34             	sub    $0x34,%esp
 8048e8c:	8b 4d 14             	mov    0x14(%ebp),%ecx
 8048e8f:	8b 55 18             	mov    0x18(%ebp),%edx
 8048e92:	8b 45 1c             	mov    0x1c(%ebp),%eax
 8048e95:	88 4d d4             	mov    %cl,-0x2c(%ebp)
 8048e98:	88 55 d0             	mov    %dl,-0x30(%ebp)
 8048e9b:	88 45 cc             	mov    %al,-0x34(%ebp)
 8048e9e:	0f b6 5d cc          	movzbl -0x34(%ebp),%ebx
 8048ea2:	0f b6 4d d0          	movzbl -0x30(%ebp),%ecx
 8048ea6:	0f b6 55 d4          	movzbl -0x2c(%ebp),%edx
 8048eaa:	8b 45 08             	mov    0x8(%ebp),%eax
 8048ead:	8b 40 04             	mov    0x4(%eax),%eax
 8048eb0:	53                   	push   %ebx
 8048eb1:	51                   	push   %ecx
 8048eb2:	52                   	push   %edx
 8048eb3:	50                   	push   %eax
 8048eb4:	e8 e7 f9 ff ff       	call   80488a0 <SDL_MapRGB@plt>
 8048eb9:	83 c4 10             	add    $0x10,%esp
 8048ebc:	89 45 e4             	mov    %eax,-0x1c(%ebp)
 8048ebf:	8b 45 08             	mov    0x8(%ebp),%eax
 8048ec2:	8b 40 04             	mov    0x4(%eax),%eax
 8048ec5:	0f b6 40 09          	movzbl 0x9(%eax),%eax
 8048ec9:	0f b6 c0             	movzbl %al,%eax
 8048ecc:	83 f8 02             	cmp    $0x2,%eax
 8048ecf:	74 45                	je     8048f16 <case_2>
 8048ed1:	7f 0a                	jg     8048edd <third_or_fotrh>
 8048ed3:	83 f8 01             	cmp    $0x1,%eax
 8048ed6:	74 15                	je     8048eed <case_1>
 8048ed8:	e9 e9 00 00 00       	jmp    8048fc6 <ret_fr_cases>

08048edd <third_or_fotrh>:
 8048edd:	83 f8 03             	cmp    $0x3,%eax
 8048ee0:	74 68                	je     8048f4a <case_3>
 8048ee2:	0f 8f ac 00 00 00    	jg     8048f94 <case_4>
 8048ee8:	e9 d9 00 00 00       	jmp    8048fc6 <ret_fr_cases>

08048eed <case_1>:
 8048eed:	8b 45 08             	mov    0x8(%ebp),%eax
 8048ef0:	8b 50 14             	mov    0x14(%eax),%edx
 8048ef3:	8b 45 08             	mov    0x8(%ebp),%eax
 8048ef6:	8b 40 10             	mov    0x10(%eax),%eax
 8048ef9:	0f af 45 10          	imul   0x10(%ebp),%eax
 8048efd:	89 c1                	mov    %eax,%ecx
 8048eff:	8b 45 0c             	mov    0xc(%ebp),%eax
 8048f02:	01 c8                	add    %ecx,%eax
 8048f04:	01 d0                	add    %edx,%eax
 8048f06:	89 45 e8             	mov    %eax,-0x18(%ebp)
 8048f09:	8b 55 e4             	mov    -0x1c(%ebp),%edx
 8048f0c:	8b 45 e8             	mov    -0x18(%ebp),%eax
 8048f0f:	88 10                	mov    %dl,(%eax)
 8048f11:	e9 b0 00 00 00       	jmp    8048fc6 <ret_fr_cases>

08048f16 <case_2>:
 8048f16:	8b 45 08             	mov    0x8(%ebp),%eax
 8048f19:	8b 50 14             	mov    0x14(%eax),%edx
 8048f1c:	8b 45 08             	mov    0x8(%ebp),%eax
 8048f1f:	8b 40 10             	mov    0x10(%eax),%eax
 8048f22:	0f af 45 10          	imul   0x10(%ebp),%eax
 8048f26:	89 c1                	mov    %eax,%ecx
 8048f28:	c1 e9 1f             	shr    $0x1f,%ecx
 8048f2b:	01 c8                	add    %ecx,%eax
 8048f2d:	d1 f8                	sar    %eax
 8048f2f:	89 c1                	mov    %eax,%ecx
 8048f31:	8b 45 0c             	mov    0xc(%ebp),%eax
 8048f34:	01 c8                	add    %ecx,%eax
 8048f36:	01 c0                	add    %eax,%eax
 8048f38:	01 d0                	add    %edx,%eax
 8048f3a:	89 45 ec             	mov    %eax,-0x14(%ebp)
 8048f3d:	8b 45 e4             	mov    -0x1c(%ebp),%eax
 8048f40:	89 c2                	mov    %eax,%edx
 8048f42:	8b 45 ec             	mov    -0x14(%ebp),%eax
 8048f45:	66 89 10             	mov    %dx,(%eax)
 8048f48:	eb 7c                	jmp    8048fc6 <ret_fr_cases>

08048f4a <case_3>:
 8048f4a:	8b 45 08             	mov    0x8(%ebp),%eax
 8048f4d:	8b 48 14             	mov    0x14(%eax),%ecx
 8048f50:	8b 45 08             	mov    0x8(%ebp),%eax
 8048f53:	8b 40 10             	mov    0x10(%eax),%eax
 8048f56:	0f af 45 10          	imul   0x10(%ebp),%eax
 8048f5a:	89 c3                	mov    %eax,%ebx
 8048f5c:	8b 55 0c             	mov    0xc(%ebp),%edx
 8048f5f:	89 d0                	mov    %edx,%eax
 8048f61:	01 c0                	add    %eax,%eax
 8048f63:	01 d0                	add    %edx,%eax
 8048f65:	01 d8                	add    %ebx,%eax
 8048f67:	01 c8                	add    %ecx,%eax
 8048f69:	89 45 f0             	mov    %eax,-0x10(%ebp)
 8048f6c:	8b 45 e4             	mov    -0x1c(%ebp),%eax
 8048f6f:	89 c2                	mov    %eax,%edx
 8048f71:	8b 45 f0             	mov    -0x10(%ebp),%eax
 8048f74:	88 10                	mov    %dl,(%eax)
 8048f76:	8b 45 f0             	mov    -0x10(%ebp),%eax
 8048f79:	83 c0 01             	add    $0x1,%eax
 8048f7c:	8b 55 e4             	mov    -0x1c(%ebp),%edx
 8048f7f:	c1 ea 08             	shr    $0x8,%edx
 8048f82:	88 10                	mov    %dl,(%eax)
 8048f84:	8b 45 f0             	mov    -0x10(%ebp),%eax
 8048f87:	83 c0 02             	add    $0x2,%eax
 8048f8a:	8b 55 e4             	mov    -0x1c(%ebp),%edx
 8048f8d:	c1 ea 10             	shr    $0x10,%edx
 8048f90:	88 10                	mov    %dl,(%eax)
 8048f92:	eb 32                	jmp    8048fc6 <ret_fr_cases>

08048f94 <case_4>:
 8048f94:	8b 45 08             	mov    0x8(%ebp),%eax
 8048f97:	8b 50 14             	mov    0x14(%eax),%edx
 8048f9a:	8b 45 08             	mov    0x8(%ebp),%eax
 8048f9d:	8b 40 10             	mov    0x10(%eax),%eax
 8048fa0:	0f af 45 10          	imul   0x10(%ebp),%eax
 8048fa4:	8d 48 03             	lea    0x3(%eax),%ecx
 8048fa7:	85 c0                	test   %eax,%eax
 8048fa9:	0f 48 c1             	cmovs  %ecx,%eax
 8048fac:	c1 f8 02             	sar    $0x2,%eax
 8048faf:	89 c1                	mov    %eax,%ecx
 8048fb1:	8b 45 0c             	mov    0xc(%ebp),%eax
 8048fb4:	01 c8                	add    %ecx,%eax
 8048fb6:	c1 e0 02             	shl    $0x2,%eax
 8048fb9:	01 d0                	add    %edx,%eax
 8048fbb:	89 45 f4             	mov    %eax,-0xc(%ebp)
 8048fbe:	8b 45 f4             	mov    -0xc(%ebp),%eax
 8048fc1:	8b 55 e4             	mov    -0x1c(%ebp),%edx
 8048fc4:	89 10                	mov    %edx,(%eax)

08048fc6 <ret_fr_cases>:
 8048fc6:	8b 5d fc             	mov    -0x4(%ebp),%ebx
 8048fc9:	c9                   	leave  
 8048fca:	ad                   	lods   %ds:(%esi),%eax
 8048fcb:	ff 20                	jmp    *(%eax)
 8048fcd:	8d 76 00             	lea    0x0(%esi),%esi

08048fd0 <DOCOL>:
 8048fd0:	8d 6d fc             	lea    -0x4(%ebp),%ebp
 8048fd3:	89 75 00             	mov    %esi,0x0(%ebp)
 8048fd6:	8d 70 04             	lea    0x4(%eax),%esi
 8048fd9:	ad                   	lods   %ds:(%esi),%eax
 8048fda:	ff 20                	jmp    *(%eax)

08048fdc <code_HELLO>:
 8048fdc:	68 24 99 04 08       	push   $0x8049924
 8048fe1:	e8 ea f9 ff ff       	call   80489d0 <puts@plt>
 8048fe6:	58                   	pop    %eax
 8048fe7:	ad                   	lods   %ds:(%esi),%eax
 8048fe8:	ff 20                	jmp    *(%eax)

08048fea <code_TOR>:
 8048fea:	58                   	pop    %eax
 8048feb:	8d 6d fc             	lea    -0x4(%ebp),%ebp
 8048fee:	89 45 00             	mov    %eax,0x0(%ebp)
 8048ff1:	ad                   	lods   %ds:(%esi),%eax
 8048ff2:	ff 20                	jmp    *(%eax)

08048ff4 <code_FROMR>:
 8048ff4:	8b 45 00             	mov    0x0(%ebp),%eax
 8048ff7:	8d 6d 04             	lea    0x4(%ebp),%ebp
 8048ffa:	50                   	push   %eax
 8048ffb:	ad                   	lods   %ds:(%esi),%eax
 8048ffc:	ff 20                	jmp    *(%eax)

08048ffe <code_RSPFETCH>:
 8048ffe:	55                   	push   %ebp
 8048fff:	ad                   	lods   %ds:(%esi),%eax
 8049000:	ff 20                	jmp    *(%eax)

08049002 <code_RSPSTORE>:
 8049002:	5d                   	pop    %ebp
 8049003:	ad                   	lods   %ds:(%esi),%eax
 8049004:	ff 20                	jmp    *(%eax)

08049006 <code_RDROP>:
 8049006:	83 c5 04             	add    $0x4,%ebp
 8049009:	ad                   	lods   %ds:(%esi),%eax
 804900a:	ff 20                	jmp    *(%eax)

0804900c <code_DROP>:
 804900c:	58                   	pop    %eax
 804900d:	ad                   	lods   %ds:(%esi),%eax
 804900e:	ff 20                	jmp    *(%eax)

08049010 <code_SWAP>:
 8049010:	58                   	pop    %eax
 8049011:	5b                   	pop    %ebx
 8049012:	50                   	push   %eax
 8049013:	53                   	push   %ebx
 8049014:	ad                   	lods   %ds:(%esi),%eax
 8049015:	ff 20                	jmp    *(%eax)

08049017 <code_DUP>:
 8049017:	8b 04 24             	mov    (%esp),%eax
 804901a:	50                   	push   %eax
 804901b:	ad                   	lods   %ds:(%esi),%eax
 804901c:	ff 20                	jmp    *(%eax)

0804901e <code_OVER>:
 804901e:	8b 44 24 04          	mov    0x4(%esp),%eax
 8049022:	50                   	push   %eax
 8049023:	ad                   	lods   %ds:(%esi),%eax
 8049024:	ff 20                	jmp    *(%eax)

08049026 <code_ROT>:
 8049026:	58                   	pop    %eax
 8049027:	5b                   	pop    %ebx
 8049028:	59                   	pop    %ecx
 8049029:	53                   	push   %ebx
 804902a:	50                   	push   %eax
 804902b:	51                   	push   %ecx
 804902c:	ad                   	lods   %ds:(%esi),%eax
 804902d:	ff 20                	jmp    *(%eax)

0804902f <code_NROT>:
 804902f:	58                   	pop    %eax
 8049030:	5b                   	pop    %ebx
 8049031:	59                   	pop    %ecx
 8049032:	50                   	push   %eax
 8049033:	51                   	push   %ecx
 8049034:	53                   	push   %ebx
 8049035:	ad                   	lods   %ds:(%esi),%eax
 8049036:	ff 20                	jmp    *(%eax)

08049038 <code_TWODROP>:
 8049038:	58                   	pop    %eax
 8049039:	58                   	pop    %eax
 804903a:	ad                   	lods   %ds:(%esi),%eax
 804903b:	ff 20                	jmp    *(%eax)

0804903d <code_TWODUP>:
 804903d:	8b 04 24             	mov    (%esp),%eax
 8049040:	8b 5c 24 04          	mov    0x4(%esp),%ebx
 8049044:	53                   	push   %ebx
 8049045:	50                   	push   %eax
 8049046:	ad                   	lods   %ds:(%esi),%eax
 8049047:	ff 20                	jmp    *(%eax)

08049049 <code_TWOSWAP>:
 8049049:	58                   	pop    %eax
 804904a:	5b                   	pop    %ebx
 804904b:	59                   	pop    %ecx
 804904c:	5a                   	pop    %edx
 804904d:	53                   	push   %ebx
 804904e:	50                   	push   %eax
 804904f:	52                   	push   %edx
 8049050:	51                   	push   %ecx
 8049051:	ad                   	lods   %ds:(%esi),%eax
 8049052:	ff 20                	jmp    *(%eax)

08049054 <code_QDUP>:
 8049054:	8b 04 24             	mov    (%esp),%eax
 8049057:	85 c0                	test   %eax,%eax
 8049059:	74 01                	je     804905c <code_QDUP+0x8>
 804905b:	50                   	push   %eax
 804905c:	ad                   	lods   %ds:(%esi),%eax
 804905d:	ff 20                	jmp    *(%eax)

0804905f <code_INCR>:
 804905f:	ff 04 24             	incl   (%esp)
 8049062:	ad                   	lods   %ds:(%esi),%eax
 8049063:	ff 20                	jmp    *(%eax)

08049065 <code_DECR>:
 8049065:	ff 0c 24             	decl   (%esp)
 8049068:	ad                   	lods   %ds:(%esi),%eax
 8049069:	ff 20                	jmp    *(%eax)

0804906b <code_INCR4>:
 804906b:	83 04 24 04          	addl   $0x4,(%esp)
 804906f:	ad                   	lods   %ds:(%esi),%eax
 8049070:	ff 20                	jmp    *(%eax)

08049072 <code_DECR4>:
 8049072:	83 2c 24 04          	subl   $0x4,(%esp)
 8049076:	ad                   	lods   %ds:(%esi),%eax
 8049077:	ff 20                	jmp    *(%eax)

08049079 <code_ADD>:
 8049079:	58                   	pop    %eax
 804907a:	01 04 24             	add    %eax,(%esp)
 804907d:	ad                   	lods   %ds:(%esi),%eax
 804907e:	ff 20                	jmp    *(%eax)

08049080 <code_SUB>:
 8049080:	58                   	pop    %eax
 8049081:	29 04 24             	sub    %eax,(%esp)
 8049084:	ad                   	lods   %ds:(%esi),%eax
 8049085:	ff 20                	jmp    *(%eax)

08049087 <code_MUL>:
 8049087:	58                   	pop    %eax
 8049088:	5b                   	pop    %ebx
 8049089:	0f af c3             	imul   %ebx,%eax
 804908c:	50                   	push   %eax
 804908d:	ad                   	lods   %ds:(%esi),%eax
 804908e:	ff 20                	jmp    *(%eax)

08049090 <code_DIVMOD>:
 8049090:	5b                   	pop    %ebx
 8049091:	58                   	pop    %eax
 8049092:	99                   	cltd   
 8049093:	f7 fb                	idiv   %ebx
 8049095:	52                   	push   %edx
 8049096:	50                   	push   %eax
 8049097:	ad                   	lods   %ds:(%esi),%eax
 8049098:	ff 20                	jmp    *(%eax)

0804909a <code_UDIVMOD>:
 804909a:	31 d2                	xor    %edx,%edx
 804909c:	5b                   	pop    %ebx
 804909d:	58                   	pop    %eax
 804909e:	f7 f3                	div    %ebx
 80490a0:	52                   	push   %edx
 80490a1:	50                   	push   %eax
 80490a2:	ad                   	lods   %ds:(%esi),%eax
 80490a3:	ff 20                	jmp    *(%eax)

080490a5 <code_EQU>:
 80490a5:	58                   	pop    %eax
 80490a6:	5b                   	pop    %ebx
 80490a7:	39 d8                	cmp    %ebx,%eax
 80490a9:	0f 94 c0             	sete   %al
 80490ac:	0f b6 c0             	movzbl %al,%eax
 80490af:	50                   	push   %eax
 80490b0:	ad                   	lods   %ds:(%esi),%eax
 80490b1:	ff 20                	jmp    *(%eax)

080490b3 <code_NEQU>:
 80490b3:	58                   	pop    %eax
 80490b4:	5b                   	pop    %ebx
 80490b5:	39 d8                	cmp    %ebx,%eax
 80490b7:	0f 95 c0             	setne  %al
 80490ba:	0f b6 c0             	movzbl %al,%eax
 80490bd:	50                   	push   %eax
 80490be:	ad                   	lods   %ds:(%esi),%eax
 80490bf:	ff 20                	jmp    *(%eax)

080490c1 <code_LT>:
 80490c1:	58                   	pop    %eax
 80490c2:	5b                   	pop    %ebx
 80490c3:	39 c3                	cmp    %eax,%ebx
 80490c5:	0f 9c c0             	setl   %al
 80490c8:	0f b6 c0             	movzbl %al,%eax
 80490cb:	50                   	push   %eax
 80490cc:	ad                   	lods   %ds:(%esi),%eax
 80490cd:	ff 20                	jmp    *(%eax)

080490cf <code_GT>:
 80490cf:	58                   	pop    %eax
 80490d0:	5b                   	pop    %ebx
 80490d1:	39 c3                	cmp    %eax,%ebx
 80490d3:	0f 9f c0             	setg   %al
 80490d6:	0f b6 c0             	movzbl %al,%eax
 80490d9:	50                   	push   %eax
 80490da:	ad                   	lods   %ds:(%esi),%eax
 80490db:	ff 20                	jmp    *(%eax)

080490dd <code_LE>:
 80490dd:	58                   	pop    %eax
 80490de:	5b                   	pop    %ebx
 80490df:	39 c3                	cmp    %eax,%ebx
 80490e1:	0f 9e c0             	setle  %al
 80490e4:	0f b6 c0             	movzbl %al,%eax
 80490e7:	50                   	push   %eax
 80490e8:	ad                   	lods   %ds:(%esi),%eax
 80490e9:	ff 20                	jmp    *(%eax)

080490eb <code_GE>:
 80490eb:	58                   	pop    %eax
 80490ec:	5b                   	pop    %ebx
 80490ed:	39 c3                	cmp    %eax,%ebx
 80490ef:	0f 9d c0             	setge  %al
 80490f2:	0f b6 c0             	movzbl %al,%eax
 80490f5:	50                   	push   %eax
 80490f6:	ad                   	lods   %ds:(%esi),%eax
 80490f7:	ff 20                	jmp    *(%eax)

080490f9 <code_ZEQU>:
 80490f9:	58                   	pop    %eax
 80490fa:	85 c0                	test   %eax,%eax
 80490fc:	0f 94 c0             	sete   %al
 80490ff:	0f b6 c0             	movzbl %al,%eax
 8049102:	50                   	push   %eax
 8049103:	ad                   	lods   %ds:(%esi),%eax
 8049104:	ff 20                	jmp    *(%eax)

08049106 <code_ZNEQU>:
 8049106:	58                   	pop    %eax
 8049107:	85 c0                	test   %eax,%eax
 8049109:	0f 95 c0             	setne  %al
 804910c:	0f b6 c0             	movzbl %al,%eax
 804910f:	50                   	push   %eax
 8049110:	ad                   	lods   %ds:(%esi),%eax
 8049111:	ff 20                	jmp    *(%eax)

08049113 <code_ZLT>:
 8049113:	58                   	pop    %eax
 8049114:	85 c0                	test   %eax,%eax
 8049116:	0f 9c c0             	setl   %al
 8049119:	0f b6 c0             	movzbl %al,%eax
 804911c:	50                   	push   %eax
 804911d:	ad                   	lods   %ds:(%esi),%eax
 804911e:	ff 20                	jmp    *(%eax)

08049120 <code_ZGT>:
 8049120:	58                   	pop    %eax
 8049121:	85 c0                	test   %eax,%eax
 8049123:	0f 9f c0             	setg   %al
 8049126:	0f b6 c0             	movzbl %al,%eax
 8049129:	50                   	push   %eax
 804912a:	ad                   	lods   %ds:(%esi),%eax
 804912b:	ff 20                	jmp    *(%eax)

0804912d <code_ZLE>:
 804912d:	58                   	pop    %eax
 804912e:	85 c0                	test   %eax,%eax
 8049130:	0f 9e c0             	setle  %al
 8049133:	0f b6 c0             	movzbl %al,%eax
 8049136:	50                   	push   %eax
 8049137:	ad                   	lods   %ds:(%esi),%eax
 8049138:	ff 20                	jmp    *(%eax)

0804913a <code_ZGE>:
 804913a:	58                   	pop    %eax
 804913b:	85 c0                	test   %eax,%eax
 804913d:	0f 9d c0             	setge  %al
 8049140:	0f b6 c0             	movzbl %al,%eax
 8049143:	50                   	push   %eax
 8049144:	ad                   	lods   %ds:(%esi),%eax
 8049145:	ff 20                	jmp    *(%eax)

08049147 <code_AND>:
 8049147:	58                   	pop    %eax
 8049148:	21 04 24             	and    %eax,(%esp)
 804914b:	ad                   	lods   %ds:(%esi),%eax
 804914c:	ff 20                	jmp    *(%eax)

0804914e <code_OR>:
 804914e:	58                   	pop    %eax
 804914f:	09 04 24             	or     %eax,(%esp)
 8049152:	ad                   	lods   %ds:(%esi),%eax
 8049153:	ff 20                	jmp    *(%eax)

08049155 <code_XOR>:
 8049155:	58                   	pop    %eax
 8049156:	31 04 24             	xor    %eax,(%esp)
 8049159:	ad                   	lods   %ds:(%esi),%eax
 804915a:	ff 20                	jmp    *(%eax)

0804915c <code_INVERT>:
 804915c:	f7 14 24             	notl   (%esp)
 804915f:	ad                   	lods   %ds:(%esi),%eax
 8049160:	ff 20                	jmp    *(%eax)

08049162 <code_EXIT>:
 8049162:	8b 75 00             	mov    0x0(%ebp),%esi
 8049165:	8d 6d 04             	lea    0x4(%ebp),%ebp
 8049168:	ad                   	lods   %ds:(%esi),%eax
 8049169:	ff 20                	jmp    *(%eax)

0804916b <code_STORE>:
 804916b:	5b                   	pop    %ebx
 804916c:	58                   	pop    %eax
 804916d:	89 03                	mov    %eax,(%ebx)
 804916f:	ad                   	lods   %ds:(%esi),%eax
 8049170:	ff 20                	jmp    *(%eax)

08049172 <code_FETCH>:
 8049172:	5b                   	pop    %ebx
 8049173:	8b 03                	mov    (%ebx),%eax
 8049175:	50                   	push   %eax
 8049176:	ad                   	lods   %ds:(%esi),%eax
 8049177:	ff 20                	jmp    *(%eax)

08049179 <code_ADDSTORE>:
 8049179:	5b                   	pop    %ebx
 804917a:	58                   	pop    %eax
 804917b:	01 03                	add    %eax,(%ebx)
 804917d:	ad                   	lods   %ds:(%esi),%eax
 804917e:	ff 20                	jmp    *(%eax)

08049180 <code_SUBSTORE>:
 8049180:	5b                   	pop    %ebx
 8049181:	58                   	pop    %eax
 8049182:	29 03                	sub    %eax,(%ebx)
 8049184:	ad                   	lods   %ds:(%esi),%eax
 8049185:	ff 20                	jmp    *(%eax)

08049187 <code_STOREBYTE>:
 8049187:	5b                   	pop    %ebx
 8049188:	58                   	pop    %eax
 8049189:	88 03                	mov    %al,(%ebx)
 804918b:	ad                   	lods   %ds:(%esi),%eax
 804918c:	ff 20                	jmp    *(%eax)

0804918e <code_FETCHBYTE>:
 804918e:	5b                   	pop    %ebx
 804918f:	31 c0                	xor    %eax,%eax
 8049191:	8a 03                	mov    (%ebx),%al
 8049193:	50                   	push   %eax
 8049194:	ad                   	lods   %ds:(%esi),%eax
 8049195:	ff 20                	jmp    *(%eax)

08049197 <code_CCOPY>:
 8049197:	8b 5c 24 04          	mov    0x4(%esp),%ebx
 804919b:	8a 03                	mov    (%ebx),%al
 804919d:	5f                   	pop    %edi
 804919e:	aa                   	stos   %al,%es:(%edi)
 804919f:	57                   	push   %edi
 80491a0:	ff 44 24 04          	incl   0x4(%esp)
 80491a4:	ad                   	lods   %ds:(%esi),%eax
 80491a5:	ff 20                	jmp    *(%eax)

080491a7 <code_CMOVE>:
 80491a7:	89 f2                	mov    %esi,%edx
 80491a9:	59                   	pop    %ecx
 80491aa:	5f                   	pop    %edi
 80491ab:	5e                   	pop    %esi
 80491ac:	f3 a4                	rep movsb %ds:(%esi),%es:(%edi)
 80491ae:	89 d6                	mov    %edx,%esi
 80491b0:	ad                   	lods   %ds:(%esi),%eax
 80491b1:	ff 20                	jmp    *(%eax)

080491b3 <code_DSPFETCH>:
 80491b3:	89 e0                	mov    %esp,%eax
 80491b5:	50                   	push   %eax
 80491b6:	ad                   	lods   %ds:(%esi),%eax
 80491b7:	ff 20                	jmp    *(%eax)

080491b9 <code_DSPSTORE>:
 80491b9:	5c                   	pop    %esp
 80491ba:	ad                   	lods   %ds:(%esi),%eax
 80491bb:	ff 20                	jmp    *(%eax)

080491bd <code_KEY>:
 80491bd:	e8 04 00 00 00       	call   80491c6 <_KEY>
 80491c2:	50                   	push   %eax
 80491c3:	ad                   	lods   %ds:(%esi),%eax
 80491c4:	ff 20                	jmp    *(%eax)

080491c6 <_KEY>:
 80491c6:	8b 1d 90 c0 04 08    	mov    0x804c090,%ebx
 80491cc:	3b 1d 94 c0 04 08    	cmp    0x804c094,%ebx
 80491d2:	7d 0c                	jge    80491e0 <_KEY+0x1a>
 80491d4:	31 c0                	xor    %eax,%eax
 80491d6:	8a 03                	mov    (%ebx),%al
 80491d8:	43                   	inc    %ebx
 80491d9:	89 1d 90 c0 04 08    	mov    %ebx,0x804c090
 80491df:	c3                   	ret    
 80491e0:	b8 03 00 00 00       	mov    $0x3,%eax
 80491e5:	bb 02 00 00 00       	mov    $0x2,%ebx
 80491ea:	b9 00 10 05 08       	mov    $0x8051000,%ecx
 80491ef:	89 0d 90 c0 04 08    	mov    %ecx,0x804c090
 80491f5:	ba 00 10 00 00       	mov    $0x1000,%edx
 80491fa:	cd 80                	int    $0x80
 80491fc:	85 c0                	test   %eax,%eax
 80491fe:	76 0a                	jbe    804920a <_KEY+0x44>
 8049200:	01 c1                	add    %eax,%ecx
 8049202:	89 0d 94 c0 04 08    	mov    %ecx,0x804c094
 8049208:	eb bc                	jmp    80491c6 <_KEY>
 804920a:	b8 01 00 00 00       	mov    $0x1,%eax
 804920f:	31 db                	xor    %ebx,%ebx
 8049211:	cd 80                	int    $0x80

08049213 <code_EMIT>:
 8049213:	58                   	pop    %eax
 8049214:	e8 03 00 00 00       	call   804921c <_EMIT>
 8049219:	ad                   	lods   %ds:(%esi),%eax
 804921a:	ff 20                	jmp    *(%eax)

0804921c <_EMIT>:
 804921c:	bb 01 00 00 00       	mov    $0x1,%ebx
 8049221:	a2 98 c0 04 08       	mov    %al,0x804c098
 8049226:	b9 98 c0 04 08       	mov    $0x804c098,%ecx
 804922b:	ba 01 00 00 00       	mov    $0x1,%edx
 8049230:	b8 04 00 00 00       	mov    $0x4,%eax
 8049235:	cd 80                	int    $0x80
 8049237:	c3                   	ret    

08049238 <code_WORD>:
 8049238:	e8 05 00 00 00       	call   8049242 <_WORD>
 804923d:	57                   	push   %edi
 804923e:	51                   	push   %ecx
 804923f:	ad                   	lods   %ds:(%esi),%eax
 8049240:	ff 20                	jmp    *(%eax)

08049242 <_WORD>:
 8049242:	e8 7f ff ff ff       	call   80491c6 <_KEY>
 8049247:	3c 5c                	cmp    $0x5c,%al
 8049249:	74 21                	je     804926c <_WORD+0x2a>
 804924b:	3c 20                	cmp    $0x20,%al
 804924d:	76 f3                	jbe    8049242 <_WORD>
 804924f:	bf 99 c0 04 08       	mov    $0x804c099,%edi
 8049254:	aa                   	stos   %al,%es:(%edi)
 8049255:	e8 6c ff ff ff       	call   80491c6 <_KEY>
 804925a:	3c 20                	cmp    $0x20,%al
 804925c:	77 f6                	ja     8049254 <_WORD+0x12>
 804925e:	81 ef 99 c0 04 08    	sub    $0x804c099,%edi
 8049264:	89 f9                	mov    %edi,%ecx
 8049266:	bf 99 c0 04 08       	mov    $0x804c099,%edi
 804926b:	c3                   	ret    
 804926c:	e8 55 ff ff ff       	call   80491c6 <_KEY>
 8049271:	3c 0a                	cmp    $0xa,%al
 8049273:	75 f7                	jne    804926c <_WORD+0x2a>
 8049275:	eb cb                	jmp    8049242 <_WORD>

08049277 <code_FIND>:
 8049277:	59                   	pop    %ecx
 8049278:	5f                   	pop    %edi
 8049279:	e8 04 00 00 00       	call   8049282 <_FIND>
 804927e:	50                   	push   %eax
 804927f:	ad                   	lods   %ds:(%esi),%eax
 8049280:	ff 20                	jmp    *(%eax)

08049282 <_FIND>:
 8049282:	56                   	push   %esi
 8049283:	8b 15 84 c0 04 08    	mov    0x804c084,%edx
 8049289:	85 d2                	test   %edx,%edx
 804928b:	74 1e                	je     80492ab <_FIND+0x29>
 804928d:	31 c0                	xor    %eax,%eax
 804928f:	8a 42 04             	mov    0x4(%edx),%al
 8049292:	24 3f                	and    $0x3f,%al
 8049294:	38 c8                	cmp    %cl,%al
 8049296:	75 0f                	jne    80492a7 <_FIND+0x25>
 8049298:	51                   	push   %ecx
 8049299:	57                   	push   %edi
 804929a:	8d 72 05             	lea    0x5(%edx),%esi
 804929d:	f3 a6                	repz cmpsb %es:(%edi),%ds:(%esi)
 804929f:	5f                   	pop    %edi
 80492a0:	59                   	pop    %ecx
 80492a1:	75 04                	jne    80492a7 <_FIND+0x25>
 80492a3:	5e                   	pop    %esi
 80492a4:	89 d0                	mov    %edx,%eax
 80492a6:	c3                   	ret    
 80492a7:	8b 12                	mov    (%edx),%edx
 80492a9:	eb de                	jmp    8049289 <_FIND+0x7>
 80492ab:	5e                   	pop    %esi
 80492ac:	31 c0                	xor    %eax,%eax
 80492ae:	c3                   	ret    

080492af <code_TCFA>:
 80492af:	5f                   	pop    %edi
 80492b0:	e8 04 00 00 00       	call   80492b9 <_TCFA>
 80492b5:	57                   	push   %edi
 80492b6:	ad                   	lods   %ds:(%esi),%eax
 80492b7:	ff 20                	jmp    *(%eax)

080492b9 <_TCFA>:
 80492b9:	31 c0                	xor    %eax,%eax
 80492bb:	83 c7 04             	add    $0x4,%edi
 80492be:	8a 07                	mov    (%edi),%al
 80492c0:	47                   	inc    %edi
 80492c1:	24 1f                	and    $0x1f,%al
 80492c3:	01 c7                	add    %eax,%edi
 80492c5:	83 c7 03             	add    $0x3,%edi
 80492c8:	83 e7 fc             	and    $0xfffffffc,%edi
 80492cb:	c3                   	ret    

080492cc <code_NUMBER>:
 80492cc:	59                   	pop    %ecx
 80492cd:	5f                   	pop    %edi
 80492ce:	e8 05 00 00 00       	call   80492d8 <_NUMBER>
 80492d3:	50                   	push   %eax
 80492d4:	51                   	push   %ecx
 80492d5:	ad                   	lods   %ds:(%esi),%eax
 80492d6:	ff 20                	jmp    *(%eax)

080492d8 <_NUMBER>:
 80492d8:	31 c0                	xor    %eax,%eax
 80492da:	31 db                	xor    %ebx,%ebx
 80492dc:	85 c9                	test   %ecx,%ecx
 80492de:	74 43                	je     8049323 <_NUMBER+0x4b>
 80492e0:	8b 15 8c c0 04 08    	mov    0x804c08c,%edx
 80492e6:	8a 1f                	mov    (%edi),%bl
 80492e8:	47                   	inc    %edi
 80492e9:	50                   	push   %eax
 80492ea:	80 fb 2d             	cmp    $0x2d,%bl
 80492ed:	75 12                	jne    8049301 <_NUMBER+0x29>
 80492ef:	58                   	pop    %eax
 80492f0:	53                   	push   %ebx
 80492f1:	49                   	dec    %ecx
 80492f2:	75 07                	jne    80492fb <_NUMBER+0x23>
 80492f4:	5b                   	pop    %ebx
 80492f5:	b9 01 00 00 00       	mov    $0x1,%ecx
 80492fa:	c3                   	ret    
 80492fb:	0f af c2             	imul   %edx,%eax
 80492fe:	8a 1f                	mov    (%edi),%bl
 8049300:	47                   	inc    %edi
 8049301:	80 eb 30             	sub    $0x30,%bl
 8049304:	72 16                	jb     804931c <_NUMBER+0x44>
 8049306:	80 fb 0a             	cmp    $0xa,%bl
 8049309:	72 08                	jb     8049313 <_NUMBER+0x3b>
 804930b:	80 eb 11             	sub    $0x11,%bl
 804930e:	72 0c                	jb     804931c <_NUMBER+0x44>
 8049310:	80 c3 0a             	add    $0xa,%bl
 8049313:	38 d3                	cmp    %dl,%bl
 8049315:	7d 05                	jge    804931c <_NUMBER+0x44>
 8049317:	01 d8                	add    %ebx,%eax
 8049319:	49                   	dec    %ecx
 804931a:	75 df                	jne    80492fb <_NUMBER+0x23>
 804931c:	5b                   	pop    %ebx
 804931d:	85 db                	test   %ebx,%ebx
 804931f:	74 02                	je     8049323 <_NUMBER+0x4b>
 8049321:	f7 d8                	neg    %eax
 8049323:	c3                   	ret    

08049324 <code_LIT>:
 8049324:	ad                   	lods   %ds:(%esi),%eax
 8049325:	50                   	push   %eax
 8049326:	ad                   	lods   %ds:(%esi),%eax
 8049327:	ff 20                	jmp    *(%eax)

08049329 <code_LITSTRING>:
 8049329:	ad                   	lods   %ds:(%esi),%eax
 804932a:	56                   	push   %esi
 804932b:	50                   	push   %eax
 804932c:	01 c6                	add    %eax,%esi
 804932e:	83 c6 03             	add    $0x3,%esi
 8049331:	83 e6 fc             	and    $0xfffffffc,%esi
 8049334:	ad                   	lods   %ds:(%esi),%eax
 8049335:	ff 20                	jmp    *(%eax)

08049337 <code_TELL>:
 8049337:	5a                   	pop    %edx
 8049338:	59                   	pop    %ecx
 8049339:	bb 01 00 00 00       	mov    $0x1,%ebx
 804933e:	b8 04 00 00 00       	mov    $0x4,%eax
 8049343:	cd 80                	int    $0x80
 8049345:	ad                   	lods   %ds:(%esi),%eax
 8049346:	ff 20                	jmp    *(%eax)

08049348 <code_CREATE>:
 8049348:	59                   	pop    %ecx
 8049349:	5b                   	pop    %ebx
 804934a:	8b 3d 80 c0 04 08    	mov    0x804c080,%edi
 8049350:	a1 84 c0 04 08       	mov    0x804c084,%eax
 8049355:	ab                   	stos   %eax,%es:(%edi)
 8049356:	88 c8                	mov    %cl,%al
 8049358:	aa                   	stos   %al,%es:(%edi)
 8049359:	56                   	push   %esi
 804935a:	89 de                	mov    %ebx,%esi
 804935c:	f3 a4                	rep movsb %ds:(%esi),%es:(%edi)
 804935e:	5e                   	pop    %esi
 804935f:	83 c7 03             	add    $0x3,%edi
 8049362:	83 e7 fc             	and    $0xfffffffc,%edi
 8049365:	a1 80 c0 04 08       	mov    0x804c080,%eax
 804936a:	a3 84 c0 04 08       	mov    %eax,0x804c084
 804936f:	89 3d 80 c0 04 08    	mov    %edi,0x804c080
 8049375:	ad                   	lods   %ds:(%esi),%eax
 8049376:	ff 20                	jmp    *(%eax)

08049378 <code_COMMA>:
 8049378:	58                   	pop    %eax
 8049379:	e8 03 00 00 00       	call   8049381 <_COMMA>
 804937e:	ad                   	lods   %ds:(%esi),%eax
 804937f:	ff 20                	jmp    *(%eax)

08049381 <_COMMA>:
 8049381:	8b 3d 80 c0 04 08    	mov    0x804c080,%edi
 8049387:	ab                   	stos   %eax,%es:(%edi)
 8049388:	89 3d 80 c0 04 08    	mov    %edi,0x804c080
 804938e:	c3                   	ret    

0804938f <code_LBRAC>:
 804938f:	31 c0                	xor    %eax,%eax
 8049391:	a3 7c c0 04 08       	mov    %eax,0x804c07c
 8049396:	ad                   	lods   %ds:(%esi),%eax
 8049397:	ff 20                	jmp    *(%eax)

08049399 <code_RBRAC>:
 8049399:	c7 05 7c c0 04 08 01 	movl   $0x1,0x804c07c
 80493a0:	00 00 00 
 80493a3:	ad                   	lods   %ds:(%esi),%eax
 80493a4:	ff 20                	jmp    *(%eax)

080493a6 <code_IMMEDIATE>:
 80493a6:	8b 3d 84 c0 04 08    	mov    0x804c084,%edi
 80493ac:	83 c7 04             	add    $0x4,%edi
 80493af:	80 37 80             	xorb   $0x80,(%edi)
 80493b2:	ad                   	lods   %ds:(%esi),%eax
 80493b3:	ff 20                	jmp    *(%eax)

080493b5 <code_HIDDEN>:
 80493b5:	5f                   	pop    %edi
 80493b6:	83 c7 04             	add    $0x4,%edi
 80493b9:	80 37 20             	xorb   $0x20,(%edi)
 80493bc:	ad                   	lods   %ds:(%esi),%eax
 80493bd:	ff 20                	jmp    *(%eax)

080493bf <code_TICK>:
 80493bf:	ad                   	lods   %ds:(%esi),%eax
 80493c0:	50                   	push   %eax
 80493c1:	ad                   	lods   %ds:(%esi),%eax
 80493c2:	ff 20                	jmp    *(%eax)

080493c4 <code_INTERPRET>:
 80493c4:	e8 79 fe ff ff       	call   8049242 <_WORD>
 80493c9:	31 c0                	xor    %eax,%eax
 80493cb:	a3 bc c0 04 08       	mov    %eax,0x804c0bc
 80493d0:	e8 ad fe ff ff       	call   8049282 <_FIND>
 80493d5:	85 c0                	test   %eax,%eax
 80493d7:	74 14                	je     80493ed <code_INTERPRET+0x29>
 80493d9:	89 c7                	mov    %eax,%edi
 80493db:	8a 47 04             	mov    0x4(%edi),%al
 80493de:	50                   	push   %eax
 80493df:	e8 d5 fe ff ff       	call   80492b9 <_TCFA>
 80493e4:	58                   	pop    %eax
 80493e5:	24 80                	and    $0x80,%al
 80493e7:	89 f8                	mov    %edi,%eax
 80493e9:	75 3b                	jne    8049426 <code_INTERPRET+0x62>
 80493eb:	eb 16                	jmp    8049403 <code_INTERPRET+0x3f>
 80493ed:	ff 05 bc c0 04 08    	incl   0x804c0bc
 80493f3:	e8 e0 fe ff ff       	call   80492d8 <_NUMBER>
 80493f8:	85 c9                	test   %ecx,%ecx
 80493fa:	75 3a                	jne    8049436 <code_INTERPRET+0x72>
 80493fc:	89 c3                	mov    %eax,%ebx
 80493fe:	b8 64 9c 04 08       	mov    $0x8049c64,%eax
 8049403:	8b 15 7c c0 04 08    	mov    0x804c07c,%edx
 8049409:	85 d2                	test   %edx,%edx
 804940b:	74 19                	je     8049426 <code_INTERPRET+0x62>
 804940d:	e8 6f ff ff ff       	call   8049381 <_COMMA>
 8049412:	8b 0d bc c0 04 08    	mov    0x804c0bc,%ecx
 8049418:	85 c9                	test   %ecx,%ecx
 804941a:	74 07                	je     8049423 <code_INTERPRET+0x5f>
 804941c:	89 d8                	mov    %ebx,%eax
 804941e:	e8 5e ff ff ff       	call   8049381 <_COMMA>
 8049423:	ad                   	lods   %ds:(%esi),%eax
 8049424:	ff 20                	jmp    *(%eax)
 8049426:	8b 0d bc c0 04 08    	mov    0x804c0bc,%ecx
 804942c:	85 c9                	test   %ecx,%ecx
 804942e:	75 02                	jne    8049432 <code_INTERPRET+0x6e>
 8049430:	ff 20                	jmp    *(%eax)
 8049432:	53                   	push   %ebx
 8049433:	ad                   	lods   %ds:(%esi),%eax
 8049434:	ff 20                	jmp    *(%eax)
 8049436:	b8 04 00 00 00       	mov    $0x4,%eax
 804943b:	bb 02 00 00 00       	mov    $0x2,%ebx
 8049440:	b9 84 9d 04 08       	mov    $0x8049d84,%ecx
 8049445:	ba 0d 00 00 00       	mov    $0xd,%edx
 804944a:	cd 80                	int    $0x80
 804944c:	8b 0d 90 c0 04 08    	mov    0x804c090,%ecx
 8049452:	89 ca                	mov    %ecx,%edx
 8049454:	81 ea 00 10 05 08    	sub    $0x8051000,%edx
 804945a:	83 fa 28             	cmp    $0x28,%edx
 804945d:	7e 05                	jle    8049464 <code_INTERPRET+0xa0>
 804945f:	ba 28 00 00 00       	mov    $0x28,%edx
 8049464:	29 d1                	sub    %edx,%ecx
 8049466:	b8 04 00 00 00       	mov    $0x4,%eax
 804946b:	cd 80                	int    $0x80
 804946d:	b8 04 00 00 00       	mov    $0x4,%eax
 8049472:	b9 91 9d 04 08       	mov    $0x8049d91,%ecx
 8049477:	ba 01 00 00 00       	mov    $0x1,%edx
 804947c:	cd 80                	int    $0x80
 804947e:	ad                   	lods   %ds:(%esi),%eax
 804947f:	ff 20                	jmp    *(%eax)

08049481 <code_BRANCH>:
 8049481:	03 36                	add    (%esi),%esi
 8049483:	ad                   	lods   %ds:(%esi),%eax
 8049484:	ff 20                	jmp    *(%eax)

08049486 <code_ZBRANCH>:
 8049486:	58                   	pop    %eax
 8049487:	85 c0                	test   %eax,%eax
 8049489:	74 f6                	je     8049481 <code_BRANCH>
 804948b:	ad                   	lods   %ds:(%esi),%eax
 804948c:	ad                   	lods   %ds:(%esi),%eax
 804948d:	ff 20                	jmp    *(%eax)

0804948f <code_CHAR>:
 804948f:	e8 ae fd ff ff       	call   8049242 <_WORD>
 8049494:	31 c0                	xor    %eax,%eax
 8049496:	8a 07                	mov    (%edi),%al
 8049498:	50                   	push   %eax
 8049499:	ad                   	lods   %ds:(%esi),%eax
 804949a:	ff 20                	jmp    *(%eax)

0804949c <code_EXECUTE>:
 804949c:	58                   	pop    %eax
 804949d:	ff 20                	jmp    *(%eax)

0804949f <DODOES>:
 804949f:	8d 6d fc             	lea    -0x4(%ebp),%ebp
 80494a2:	89 75 00             	mov    %esi,0x0(%ebp)
 80494a5:	5e                   	pop    %esi
 80494a6:	8d 40 04             	lea    0x4(%eax),%eax
 80494a9:	50                   	push   %eax
 80494aa:	ad                   	lods   %ds:(%esi),%eax
 80494ab:	ff 20                	jmp    *(%eax)

080494ad <code_DODOES_ADDR>:
 80494ad:	68 9f 94 04 08       	push   $0x804949f
 80494b2:	ad                   	lods   %ds:(%esi),%eax
 80494b3:	ff 20                	jmp    *(%eax)

080494b5 <code_SYSCALL3>:
 80494b5:	58                   	pop    %eax
 80494b6:	5b                   	pop    %ebx
 80494b7:	59                   	pop    %ecx
 80494b8:	5a                   	pop    %edx
 80494b9:	cd 80                	int    $0x80
 80494bb:	50                   	push   %eax
 80494bc:	ad                   	lods   %ds:(%esi),%eax
 80494bd:	ff 20                	jmp    *(%eax)

080494bf <code_SYSCALL2>:
 80494bf:	58                   	pop    %eax
 80494c0:	5b                   	pop    %ebx
 80494c1:	59                   	pop    %ecx
 80494c2:	cd 80                	int    $0x80
 80494c4:	50                   	push   %eax
 80494c5:	ad                   	lods   %ds:(%esi),%eax
 80494c6:	ff 20                	jmp    *(%eax)

080494c8 <code_SYSCALL1>:
 80494c8:	58                   	pop    %eax
 80494c9:	5b                   	pop    %ebx
 80494ca:	cd 80                	int    $0x80
 80494cc:	50                   	push   %eax
 80494cd:	ad                   	lods   %ds:(%esi),%eax
 80494ce:	ff 20                	jmp    *(%eax)

080494d0 <code_SYSCALL0>:
 80494d0:	58                   	pop    %eax
 80494d1:	cd 80                	int    $0x80
 80494d3:	50                   	push   %eax
 80494d4:	ad                   	lods   %ds:(%esi),%eax
 80494d5:	ff 20                	jmp    *(%eax)

080494d7 <forth_asm_start>:
 80494d7:	fc                   	cld    
 80494d8:	89 25 88 c0 04 08    	mov    %esp,0x804c088
 80494de:	bd 00 10 05 08       	mov    $0x8051000,%ebp
 80494e3:	b8 00 20 05 08       	mov    $0x8052000,%eax
 80494e8:	a3 80 c0 04 08       	mov    %eax,0x804c080
 80494ed:	be 5c 9e 04 08       	mov    $0x8049e5c,%esi
 80494f2:	ad                   	lods   %ds:(%esi),%eax
 80494f3:	ff 20                	jmp    *(%eax)

080494f5 <main>:
 80494f5:	55                   	push   %ebp
 80494f6:	89 e5                	mov    %esp,%ebp
 80494f8:	e8 da ff ff ff       	call   80494d7 <forth_asm_start>
 80494fd:	b8 00 00 00 00       	mov    $0x0,%eax
 8049502:	5d                   	pop    %ebp
 8049503:	c3                   	ret    
 8049504:	66 90                	xchg   %ax,%ax
 8049506:	66 90                	xchg   %ax,%ax
 8049508:	66 90                	xchg   %ax,%ax
 804950a:	66 90                	xchg   %ax,%ax
 804950c:	66 90                	xchg   %ax,%ax
 804950e:	66 90                	xchg   %ax,%ax

08049510 <__libc_csu_init>:
 8049510:	55                   	push   %ebp
 8049511:	57                   	push   %edi
 8049512:	56                   	push   %esi
 8049513:	53                   	push   %ebx
 8049514:	e8 07 f5 ff ff       	call   8048a20 <__x86.get_pc_thunk.bx>
 8049519:	81 c3 e7 2a 00 00    	add    $0x2ae7,%ebx
 804951f:	83 ec 0c             	sub    $0xc,%esp
 8049522:	8b 6c 24 20          	mov    0x20(%esp),%ebp
 8049526:	8d b3 04 ff ff ff    	lea    -0xfc(%ebx),%esi
 804952c:	e8 d3 f2 ff ff       	call   8048804 <_init>
 8049531:	8d 83 00 ff ff ff    	lea    -0x100(%ebx),%eax
 8049537:	29 c6                	sub    %eax,%esi
 8049539:	c1 fe 02             	sar    $0x2,%esi
 804953c:	85 f6                	test   %esi,%esi
 804953e:	74 25                	je     8049565 <__libc_csu_init+0x55>
 8049540:	31 ff                	xor    %edi,%edi
 8049542:	8d b6 00 00 00 00    	lea    0x0(%esi),%esi
 8049548:	83 ec 04             	sub    $0x4,%esp
 804954b:	ff 74 24 2c          	pushl  0x2c(%esp)
 804954f:	ff 74 24 2c          	pushl  0x2c(%esp)
 8049553:	55                   	push   %ebp
 8049554:	ff 94 bb 00 ff ff ff 	call   *-0x100(%ebx,%edi,4)
 804955b:	83 c7 01             	add    $0x1,%edi
 804955e:	83 c4 10             	add    $0x10,%esp
 8049561:	39 f7                	cmp    %esi,%edi
 8049563:	75 e3                	jne    8049548 <__libc_csu_init+0x38>
 8049565:	83 c4 0c             	add    $0xc,%esp
 8049568:	5b                   	pop    %ebx
 8049569:	5e                   	pop    %esi
 804956a:	5f                   	pop    %edi
 804956b:	5d                   	pop    %ebp
 804956c:	c3                   	ret    
 804956d:	8d 76 00             	lea    0x0(%esi),%esi

08049570 <__libc_csu_fini>:
 8049570:	f3 c3                	repz ret 
 8049572:	66 90                	xchg   %ax,%ax
 8049574:	66 90                	xchg   %ax,%ax
 8049576:	66 90                	xchg   %ax,%ax
 8049578:	66 90                	xchg   %ax,%ax
 804957a:	66 90                	xchg   %ax,%ax
 804957c:	66 90                	xchg   %ax,%ax
 804957e:	66 90                	xchg   %ax,%ax

08049580 <atexit>:
 8049580:	53                   	push   %ebx
 8049581:	e8 9a f4 ff ff       	call   8048a20 <__x86.get_pc_thunk.bx>
 8049586:	81 c3 7a 2a 00 00    	add    $0x2a7a,%ebx
 804958c:	83 ec 08             	sub    $0x8,%esp
 804958f:	8d 05 78 c0 04 08    	lea    0x804c078,%eax
 8049595:	85 c0                	test   %eax,%eax
 8049597:	74 17                	je     80495b0 <atexit+0x30>
 8049599:	8b 00                	mov    (%eax),%eax
 804959b:	83 ec 04             	sub    $0x4,%esp
 804959e:	50                   	push   %eax
 804959f:	6a 00                	push   $0x0
 80495a1:	ff 74 24 1c          	pushl  0x1c(%esp)
 80495a5:	e8 16 f3 ff ff       	call   80488c0 <__cxa_atexit@plt>
 80495aa:	83 c4 18             	add    $0x18,%esp
 80495ad:	5b                   	pop    %ebx
 80495ae:	c3                   	ret    
 80495af:	90                   	nop
 80495b0:	31 c0                	xor    %eax,%eax
 80495b2:	eb e7                	jmp    804959b <atexit+0x1b>

Disassembly of section .fini:

080495b4 <_fini>:
 80495b4:	53                   	push   %ebx
 80495b5:	83 ec 08             	sub    $0x8,%esp
 80495b8:	e8 63 f4 ff ff       	call   8048a20 <__x86.get_pc_thunk.bx>
 80495bd:	81 c3 43 2a 00 00    	add    $0x2a43,%ebx
 80495c3:	83 c4 08             	add    $0x8,%esp
 80495c6:	5b                   	pop    %ebx
 80495c7:	c3                   	ret    
